Archive member included to satisfy reference by file (symbol)

contiki-cc2538dk.a(leds.o)    dummysensor.co (leds_init)
contiki-cc2538dk.a(leds-arch.o)
                              contiki-cc2538dk.a(leds.o) (leds_arch_init)
contiki-cc2538dk.a(contiki-main.o)
                              obj_cc2538dk/startup-gcc.o (main)
contiki-cc2538dk.a(sensors.o)
                              contiki-cc2538dk.a(contiki-main.o) (sensors_process)
contiki-cc2538dk.a(smartrf-sensors)
                              contiki-cc2538dk.a(sensors.o) (sensors_flags)
contiki-cc2538dk.a(button-sensor.o)
                              contiki-cc2538dk.a(contiki-main.o) (button_sensor_init)
contiki-cc2538dk.a(als-sensor.o)
                              contiki-cc2538dk.a(smartrf-sensors) (als_sensor)
contiki-cc2538dk.a(clock.o)   contiki-cc2538dk.a(contiki-main.o) (clock_init)
contiki-cc2538dk.a(rtimer-arch.o)
                              contiki-cc2538dk.a(clock.o) (rtimer_arch_now)
contiki-cc2538dk.a(uart.o)    contiki-cc2538dk.a(contiki-main.o) (uart_init)
contiki-cc2538dk.a(watchdog.o)
                              contiki-cc2538dk.a(contiki-main.o) (watchdog_init)
contiki-cc2538dk.a(nvic.o)    contiki-cc2538dk.a(contiki-main.o) (nvic_init)
contiki-cc2538dk.a(cpu.o)     contiki-cc2538dk.a(contiki-main.o) (cpu_cpsie)
contiki-cc2538dk.a(sys-ctrl.o)
                              contiki-cc2538dk.a(contiki-main.o) (sys_ctrl_init)
contiki-cc2538dk.a(gpio.o)    contiki-cc2538dk.a(button-sensor.o) (gpio_register_callback)
contiki-cc2538dk.a(ioc.o)     contiki-cc2538dk.a(contiki-main.o) (ioc_init)
contiki-cc2538dk.a(adc.o)     contiki-cc2538dk.a(contiki-main.o) (adc_init)
contiki-cc2538dk.a(crypto.o)  obj_cc2538dk/startup-gcc.o (crypto_isr)
contiki-cc2538dk.a(cc2538-rf.o)
                              obj_cc2538dk/startup-gcc.o (cc2538_rf_rx_tx_isr)
contiki-cc2538dk.a(udma.o)    contiki-cc2538dk.a(contiki-main.o) (udma_init)
contiki-cc2538dk.a(lpm.o)     contiki-cc2538dk.a(rtimer-arch.o) (lpm_exit)
contiki-cc2538dk.a(dbg.o)     dummysensor.co (puts)
contiki-cc2538dk.a(ieee-addr.o)
                              contiki-cc2538dk.a(contiki-main.o) (ieee_addr_cpy_to)
contiki-cc2538dk.a(cc2538-temp-sen)
                              contiki-cc2538dk.a(smartrf-sensors) (cc2538_temp_sensor)
contiki-cc2538dk.a(vdd3-sensor.o)
                              contiki-cc2538dk.a(smartrf-sensors) (vdd3_sensor)
contiki-cc2538dk.a(dbg-printf.o)
                              dummysensor.co (printf)
contiki-cc2538dk.a(strformat.o)
                              contiki-cc2538dk.a(dbg-printf.o) (format_str_v)
contiki-cc2538dk.a(autostart.o)
                              contiki-cc2538dk.a(contiki-main.o) (autostart_start)
contiki-cc2538dk.a(energest.o)
                              contiki-cc2538dk.a(contiki-main.o) (energest_init)
contiki-cc2538dk.a(etimer.o)  contiki-cc2538dk.a(clock.o) (etimer_request_poll)
contiki-cc2538dk.a(ctimer.o)  contiki-cc2538dk.a(contiki-main.o) (ctimer_init)
contiki-cc2538dk.a(process.o)
                              contiki-cc2538dk.a(sensors.o) (process_alloc_event)
contiki-cc2538dk.a(rtimer.o)  contiki-cc2538dk.a(contiki-main.o) (rtimer_init)
contiki-cc2538dk.a(timer.o)   dummysensor.co (timer_set)
contiki-cc2538dk.a(serial-line.o)
                              contiki-cc2538dk.a(contiki-main.o) (serial_line_input_byte)
contiki-cc2538dk.a(list.o)    contiki-cc2538dk.a(ctimer.o) (list_init)
contiki-cc2538dk.a(random.o)  dummysensor.co (random_rand)
contiki-cc2538dk.a(ringbuf.o)
                              contiki-cc2538dk.a(serial-line.o) (ringbuf_init)
contiki-cc2538dk.a(uip6.o)    contiki-cc2538dk.a(contiki-main.o) (uip_lladdr)
contiki-cc2538dk.a(uip-nd6.o)
                              contiki-cc2538dk.a(uip6.o) (uip_nd6_init)
contiki-cc2538dk.a(sicslowpan.o)
                              contiki-cc2538dk.a(contiki-main.o) (sicslowpan_driver)
contiki-cc2538dk.a(tcpip.o)   contiki-cc2538dk.a(sicslowpan.o) (tcpip_set_outputfunc)
contiki-cc2538dk.a(simple-udp.o)
                              dummysensor.co (simple_udp_sendto)
contiki-cc2538dk.a(rpl-dag.o)
                              contiki-cc2538dk.a(tcpip.o) (rpl_repair_root)
contiki-cc2538dk.a(rpl-timers.o)
                              contiki-cc2538dk.a(rpl-dag.o) (rpl_reset_dio_timer)
contiki-cc2538dk.a(rpl-ext-header.)
                              contiki-cc2538dk.a(uip6.o) (rpl_verify_header)
contiki-cc2538dk.a(rpl.o)     contiki-cc2538dk.a(rpl-timers.o) (rpl_get_mode)
contiki-cc2538dk.a(rpl-mrhof.o)
                              contiki-cc2538dk.a(rpl-dag.o) (rpl_mrhof)
contiki-cc2538dk.a(queuebuf.o)
                              contiki-cc2538dk.a(contiki-main.o) (queuebuf_init)
contiki-cc2538dk.a(nbr-table.o)
                              contiki-cc2538dk.a(rpl-dag.o) (nbr_table_register)
contiki-cc2538dk.a(packetbuf.o)
                              contiki-cc2538dk.a(queuebuf.o) (packetbuf_copyto)
contiki-cc2538dk.a(netstack.o)
                              contiki-cc2538dk.a(contiki-main.o) (netstack_init)
contiki-cc2538dk.a(linkaddr.o)
                              contiki-cc2538dk.a(sicslowpan.o) (linkaddr_copy)
contiki-cc2538dk.a(framer-802154.o)
                              contiki-cc2538dk.a(sicslowpan.o) (framer_802154)
contiki-cc2538dk.a(csma.o)    contiki-cc2538dk.a(contiki-main.o) (csma_driver)
contiki-cc2538dk.a(frame802154.o)
                              contiki-cc2538dk.a(framer-802154.o) (frame802154_hdrlen)
contiki-cc2538dk.a(mac.o)     contiki-cc2538dk.a(csma.o) (mac_call_sent_callback)
contiki-cc2538dk.a(framer.o)  contiki-cc2538dk.a(framer-802154.o) (framer_canonical_create_and_secure)
contiki-cc2538dk.a(contikimac.o)
                              contiki-cc2538dk.a(contiki-main.o) (contikimac_driver)
contiki-cc2538dk.a(nullsec.o)
                              contiki-cc2538dk.a(sicslowpan.o) (nullsec_driver)
contiki-cc2538dk.a(stimer.o)  contiki-cc2538dk.a(uip-nd6.o) (stimer_set)
contiki-cc2538dk.a(memb.o)    contiki-cc2538dk.a(queuebuf.o) (memb_init)
contiki-cc2538dk.a(uip-icmp6.o)
                              contiki-cc2538dk.a(uip6.o) (uip_icmp6_input)
contiki-cc2538dk.a(uip-ds6.o)
                              contiki-cc2538dk.a(uip6.o) (uip_ds6_is_addr_onlink)
contiki-cc2538dk.a(uip-ds6-route.o)
                              contiki-cc2538dk.a(uip-ds6.o) (uip_ds6_route_init)
contiki-cc2538dk.a(uip-ds6-nbr.o)
                              contiki-cc2538dk.a(uip-ds6.o) (uip_ds6_neighbors_init)
contiki-cc2538dk.a(uip-debug.o)
                              contiki-cc2538dk.a(uip-ds6-route.o) (uip_debug_ipaddr_print)
contiki-cc2538dk.a(uip-udp-packet.)
                              contiki-cc2538dk.a(simple-udp.o) (uip_udp_packet_sendto)
contiki-cc2538dk.a(rpl-icmp6.o)
                              contiki-cc2538dk.a(rpl-timers.o) (dis_output)
contiki-cc2538dk.a(mac-sequence.o)
                              contiki-cc2538dk.a(contikimac.o) (mac_sequence_is_duplicate)
/usr/lib/gcc/arm-none-eabi/4.8/armv7-m/libgcc.a(_aeabi_uldivmod.o)
                              contiki-cc2538dk.a(strformat.o) (__aeabi_uldivmod)
/usr/lib/gcc/arm-none-eabi/4.8/armv7-m/libgcc.a(bpabi.o)
                              /usr/lib/gcc/arm-none-eabi/4.8/armv7-m/libgcc.a(_aeabi_uldivmod.o) (__gnu_uldivmod_helper)
/usr/lib/gcc/arm-none-eabi/4.8/armv7-m/libgcc.a(_dvmd_tls.o)
                              /usr/lib/gcc/arm-none-eabi/4.8/armv7-m/libgcc.a(_aeabi_uldivmod.o) (__aeabi_ldiv0)
/usr/lib/gcc/arm-none-eabi/4.8/armv7-m/libgcc.a(_divdi3.o)
                              /usr/lib/gcc/arm-none-eabi/4.8/armv7-m/libgcc.a(bpabi.o) (__divdi3)
/usr/lib/gcc/arm-none-eabi/4.8/armv7-m/libgcc.a(_udivdi3.o)
                              /usr/lib/gcc/arm-none-eabi/4.8/armv7-m/libgcc.a(bpabi.o) (__udivdi3)
/usr/lib/gcc/arm-none-eabi/4.8/../../../arm-none-eabi/lib/armv7-m/libc.a(lib_a-memcmp.o)
                              contiki-cc2538dk.a(uip6.o) (memcmp)
/usr/lib/gcc/arm-none-eabi/4.8/../../../arm-none-eabi/lib/armv7-m/libc.a(lib_a-memcpy.o)
                              contiki-cc2538dk.a(uip6.o) (memcpy)
/usr/lib/gcc/arm-none-eabi/4.8/../../../arm-none-eabi/lib/armv7-m/libc.a(lib_a-memmove.o)
                              contiki-cc2538dk.a(uip6.o) (memmove)
/usr/lib/gcc/arm-none-eabi/4.8/../../../arm-none-eabi/lib/armv7-m/libc.a(lib_a-memset.o)
                              contiki-cc2538dk.a(gpio.o) (memset)
/usr/lib/gcc/arm-none-eabi/4.8/../../../arm-none-eabi/lib/armv7-m/libc.a(lib_a-strlen.o)
                              contiki-cc2538dk.a(sensors.o) (strlen)
/usr/lib/gcc/arm-none-eabi/4.8/../../../arm-none-eabi/lib/armv7-m/libc.a(lib_a-strncmp.o)
                              contiki-cc2538dk.a(sensors.o) (strncmp)

Allocating common symbols
Common symbol       size              file

uip_ds6_timer_ra    0x8               contiki-cc2538dk.a(uip-ds6.o)
uip_ds6_if          0xf8              contiki-cc2538dk.a(uip-ds6.o)
uip_ds6_netif_addr_list_offset
                    0x1               contiki-cc2538dk.a(uip-ds6.o)
uip_len             0x2               contiki-cc2538dk.a(uip6.o)
uip_ds6_addr_size   0x1               contiki-cc2538dk.a(uip-ds6.o)
uip_sappdata        0x4               contiki-cc2538dk.a(uip6.o)
packetbuf_addrs     0x10              contiki-cc2538dk.a(packetbuf.o)
uip_ds6_prefix_list
                    0x60              contiki-cc2538dk.a(uip-ds6.o)
frag_sender         0x8               contiki-cc2538dk.a(sicslowpan.o)
uip_lladdr          0x8               contiki-cc2538dk.a(uip6.o)
uip_aligned_buf     0x514             contiki-cc2538dk.a(uip6.o)
uip_flags           0x1               contiki-cc2538dk.a(uip6.o)
uip_ds6_timer_periodic
                    0x10              contiki-cc2538dk.a(uip-ds6.o)
uip_next_hdr        0x4               contiki-cc2538dk.a(uip6.o)
linkaddr_node_addr  0x8               contiki-cc2538dk.a(linkaddr.o)
default_instance    0x4               contiki-cc2538dk.a(rpl-dag.o)
uip_udp_conn        0x4               contiki-cc2538dk.a(uip6.o)
packetbuf_attrs     0x1e              contiki-cc2538dk.a(packetbuf.o)
instance_table      0x124             contiki-cc2538dk.a(rpl-dag.o)
uip_appdata         0x4               contiki-cc2538dk.a(uip6.o)
uip_conn            0x4               contiki-cc2538dk.a(uip6.o)
tcpip_event         0x1               contiki-cc2538dk.a(tcpip.o)
uip_icmp6_conns     0x8               contiki-cc2538dk.a(uip6.o)
sensors_flags       0x9               contiki-cc2538dk.a(smartrf-sensors)
serial_line_event_message
                    0x1               contiki-cc2538dk.a(serial-line.o)
sensors_event       0x1               contiki-cc2538dk.a(sensors.o)
tcpip_icmp6_event   0x1               contiki-cc2538dk.a(tcpip.o)
uip_slen            0x2               contiki-cc2538dk.a(uip6.o)
uip_udp_conns       0x140             contiki-cc2538dk.a(uip6.o)

Discarded input sections

 .text          0x0000000000000000        0x0 obj_cc2538dk/startup-gcc.o
 .data          0x0000000000000000        0x0 obj_cc2538dk/startup-gcc.o
 .bss           0x0000000000000000        0x0 obj_cc2538dk/startup-gcc.o
 .text          0x0000000000000000        0x0 dummysensor.co
 .data          0x0000000000000000        0x0 dummysensor.co
 .bss           0x0000000000000000        0x0 dummysensor.co
 .text.MyInit   0x0000000000000000       0x1c dummysensor.co
 .text.GetPeriod
                0x0000000000000000       0x1a dummysensor.co
 .text          0x0000000000000000        0x0 contiki-cc2538dk.a(leds.o)
 .data          0x0000000000000000        0x0 contiki-cc2538dk.a(leds.o)
 .bss           0x0000000000000000        0x0 contiki-cc2538dk.a(leds.o)
 .text.leds_get
                0x0000000000000000        0x4 contiki-cc2538dk.a(leds.o)
 .text.leds_set
                0x0000000000000000        0xc contiki-cc2538dk.a(leds.o)
 .text.leds_toggle
                0x0000000000000000       0x10 contiki-cc2538dk.a(leds.o)
 .text.leds_blink
                0x0000000000000000       0x28 contiki-cc2538dk.a(leds.o)
 .text          0x0000000000000000        0x0 contiki-cc2538dk.a(leds-arch.o)
 .data          0x0000000000000000        0x0 contiki-cc2538dk.a(leds-arch.o)
 .bss           0x0000000000000000        0x0 contiki-cc2538dk.a(leds-arch.o)
 .text.leds_arch_get
                0x0000000000000000        0xc contiki-cc2538dk.a(leds-arch.o)
 .text          0x0000000000000000        0x0 contiki-cc2538dk.a(contiki-main.o)
 .data          0x0000000000000000        0x0 contiki-cc2538dk.a(contiki-main.o)
 .bss           0x0000000000000000        0x0 contiki-cc2538dk.a(contiki-main.o)
 .text          0x0000000000000000        0x0 contiki-cc2538dk.a(sensors.o)
 .data          0x0000000000000000        0x0 contiki-cc2538dk.a(sensors.o)
 .bss           0x0000000000000000        0x0 contiki-cc2538dk.a(sensors.o)
 .text.sensors_first
                0x0000000000000000        0xc contiki-cc2538dk.a(sensors.o)
 .text.sensors_next
                0x0000000000000000       0x2c contiki-cc2538dk.a(sensors.o)
 .text.sensors_find
                0x0000000000000000       0x40 contiki-cc2538dk.a(sensors.o)
 .text          0x0000000000000000        0x0 contiki-cc2538dk.a(smartrf-sensors)
 .data          0x0000000000000000        0x0 contiki-cc2538dk.a(smartrf-sensors)
 .bss           0x0000000000000000        0x0 contiki-cc2538dk.a(smartrf-sensors)
 .text          0x0000000000000000        0x0 contiki-cc2538dk.a(button-sensor.o)
 .data          0x0000000000000000        0x0 contiki-cc2538dk.a(button-sensor.o)
 .bss           0x0000000000000000        0x0 contiki-cc2538dk.a(button-sensor.o)
 .text          0x0000000000000000        0x0 contiki-cc2538dk.a(als-sensor.o)
 .data          0x0000000000000000        0x0 contiki-cc2538dk.a(als-sensor.o)
 .bss           0x0000000000000000        0x0 contiki-cc2538dk.a(als-sensor.o)
 .text          0x0000000000000000        0x0 contiki-cc2538dk.a(clock.o)
 .data          0x0000000000000000        0x0 contiki-cc2538dk.a(clock.o)
 .bss           0x0000000000000000        0x0 contiki-cc2538dk.a(clock.o)
 .text.clock_set_seconds
                0x0000000000000000       0x10 contiki-cc2538dk.a(clock.o)
 .text.clock_delay
                0x0000000000000000        0x6 contiki-cc2538dk.a(clock.o)
 .text          0x0000000000000000        0x0 contiki-cc2538dk.a(rtimer-arch.o)
 .data          0x0000000000000000        0x0 contiki-cc2538dk.a(rtimer-arch.o)
 .bss           0x0000000000000000        0x0 contiki-cc2538dk.a(rtimer-arch.o)
 .text          0x0000000000000000        0x0 contiki-cc2538dk.a(uart.o)
 .data          0x0000000000000000        0x0 contiki-cc2538dk.a(uart.o)
 .bss           0x0000000000000000        0x0 contiki-cc2538dk.a(uart.o)
 .text          0x0000000000000000        0x0 contiki-cc2538dk.a(watchdog.o)
 .data          0x0000000000000000        0x0 contiki-cc2538dk.a(watchdog.o)
 .bss           0x0000000000000000        0x0 contiki-cc2538dk.a(watchdog.o)
 .text.watchdog_reboot
                0x0000000000000000       0x14 contiki-cc2538dk.a(watchdog.o)
 .text          0x0000000000000000        0x0 contiki-cc2538dk.a(nvic.o)
 .data          0x0000000000000000        0x0 contiki-cc2538dk.a(nvic.o)
 .bss           0x0000000000000000        0x0 contiki-cc2538dk.a(nvic.o)
 .text.nvic_interrupt_en_restore
                0x0000000000000000       0x1c contiki-cc2538dk.a(nvic.o)
 .text.nvic_interrupt_en_save
                0x0000000000000000       0x2c contiki-cc2538dk.a(nvic.o)
 .text.nvic_interrupt_pend
                0x0000000000000000       0x1c contiki-cc2538dk.a(nvic.o)
 .text          0x0000000000000000        0x0 contiki-cc2538dk.a(cpu.o)
 .data          0x0000000000000000        0x0 contiki-cc2538dk.a(cpu.o)
 .bss           0x0000000000000000        0x0 contiki-cc2538dk.a(cpu.o)
 .text          0x0000000000000000        0x0 contiki-cc2538dk.a(sys-ctrl.o)
 .data          0x0000000000000000        0x0 contiki-cc2538dk.a(sys-ctrl.o)
 .bss           0x0000000000000000        0x0 contiki-cc2538dk.a(sys-ctrl.o)
 .text.sys_ctrl_reset
                0x0000000000000000        0xc contiki-cc2538dk.a(sys-ctrl.o)
 .text.sys_ctrl_get_sys_clock
                0x0000000000000000       0x18 contiki-cc2538dk.a(sys-ctrl.o)
 .text.sys_ctrl_get_io_clock
                0x0000000000000000       0x18 contiki-cc2538dk.a(sys-ctrl.o)
 .text          0x0000000000000000        0x0 contiki-cc2538dk.a(gpio.o)
 .data          0x0000000000000000        0x0 contiki-cc2538dk.a(gpio.o)
 .bss           0x0000000000000000        0x0 contiki-cc2538dk.a(gpio.o)
 .text          0x0000000000000000        0x0 contiki-cc2538dk.a(ioc.o)
 .data          0x0000000000000000        0x0 contiki-cc2538dk.a(ioc.o)
 .bss           0x0000000000000000        0x0 contiki-cc2538dk.a(ioc.o)
 .text          0x0000000000000000        0x0 contiki-cc2538dk.a(adc.o)
 .data          0x0000000000000000        0x0 contiki-cc2538dk.a(adc.o)
 .bss           0x0000000000000000        0x0 contiki-cc2538dk.a(adc.o)
 .text          0x0000000000000000        0x0 contiki-cc2538dk.a(crypto.o)
 .data          0x0000000000000000        0x0 contiki-cc2538dk.a(crypto.o)
 .bss           0x0000000000000000        0x0 contiki-cc2538dk.a(crypto.o)
 .text.permit_pm1
                0x0000000000000000       0x14 contiki-cc2538dk.a(crypto.o)
 .text.crypto_enable
                0x0000000000000000       0x20 contiki-cc2538dk.a(crypto.o)
 .text.crypto_init
                0x0000000000000000       0x3c contiki-cc2538dk.a(crypto.o)
 .text.crypto_disable
                0x0000000000000000       0x20 contiki-cc2538dk.a(crypto.o)
 .text.crypto_register_process_notification
                0x0000000000000000        0xc contiki-cc2538dk.a(crypto.o)
 .text          0x0000000000000000        0x0 contiki-cc2538dk.a(cc2538-rf.o)
 .data          0x0000000000000000        0x0 contiki-cc2538dk.a(cc2538-rf.o)
 .bss           0x0000000000000000        0x0 contiki-cc2538dk.a(cc2538-rf.o)
 .text.cc2538_rf_set_promiscous_mode
                0x0000000000000000        0x4 contiki-cc2538dk.a(cc2538-rf.o)
 .text          0x0000000000000000        0x0 contiki-cc2538dk.a(udma.o)
 .data          0x0000000000000000        0x0 contiki-cc2538dk.a(udma.o)
 .bss           0x0000000000000000        0x0 contiki-cc2538dk.a(udma.o)
 .text.udma_set_channel_assignment
                0x0000000000000000       0x20 contiki-cc2538dk.a(udma.o)
 .text.udma_channel_disable
                0x0000000000000000       0x14 contiki-cc2538dk.a(udma.o)
 .text.udma_channel_use_alternate
                0x0000000000000000       0x18 contiki-cc2538dk.a(udma.o)
 .text.udma_channel_use_primary
                0x0000000000000000       0x14 contiki-cc2538dk.a(udma.o)
 .text.udma_channel_prio_set_high
                0x0000000000000000       0x18 contiki-cc2538dk.a(udma.o)
 .text.udma_channel_prio_set_default
                0x0000000000000000       0x14 contiki-cc2538dk.a(udma.o)
 .text.udma_channel_use_burst
                0x0000000000000000       0x18 contiki-cc2538dk.a(udma.o)
 .text.udma_channel_use_single
                0x0000000000000000       0x14 contiki-cc2538dk.a(udma.o)
 .text.udma_channel_mask_clr
                0x0000000000000000       0x14 contiki-cc2538dk.a(udma.o)
 .text          0x0000000000000000        0x0 contiki-cc2538dk.a(lpm.o)
 .data          0x0000000000000000        0x0 contiki-cc2538dk.a(lpm.o)
 .bss           0x0000000000000000        0x0 contiki-cc2538dk.a(lpm.o)
 .text.lpm_set_max_pm
                0x0000000000000000       0x10 contiki-cc2538dk.a(lpm.o)
 .text          0x0000000000000000        0x0 contiki-cc2538dk.a(dbg.o)
 .data          0x0000000000000000        0x0 contiki-cc2538dk.a(dbg.o)
 .bss           0x0000000000000000        0x0 contiki-cc2538dk.a(dbg.o)
 .text          0x0000000000000000        0x0 contiki-cc2538dk.a(ieee-addr.o)
 .data          0x0000000000000000        0x0 contiki-cc2538dk.a(ieee-addr.o)
 .bss           0x0000000000000000        0x0 contiki-cc2538dk.a(ieee-addr.o)
 .text          0x0000000000000000        0x0 contiki-cc2538dk.a(cc2538-temp-sen)
 .data          0x0000000000000000        0x0 contiki-cc2538dk.a(cc2538-temp-sen)
 .bss           0x0000000000000000        0x0 contiki-cc2538dk.a(cc2538-temp-sen)
 .text          0x0000000000000000        0x0 contiki-cc2538dk.a(vdd3-sensor.o)
 .data          0x0000000000000000        0x0 contiki-cc2538dk.a(vdd3-sensor.o)
 .bss           0x0000000000000000        0x0 contiki-cc2538dk.a(vdd3-sensor.o)
 .text          0x0000000000000000        0x0 contiki-cc2538dk.a(dbg-printf.o)
 .data          0x0000000000000000        0x0 contiki-cc2538dk.a(dbg-printf.o)
 .bss           0x0000000000000000        0x0 contiki-cc2538dk.a(dbg-printf.o)
 .text          0x0000000000000000        0x0 contiki-cc2538dk.a(strformat.o)
 .data          0x0000000000000000        0x0 contiki-cc2538dk.a(strformat.o)
 .bss           0x0000000000000000        0x0 contiki-cc2538dk.a(strformat.o)
 .text.format_str
                0x0000000000000000       0x1a contiki-cc2538dk.a(strformat.o)
 .text          0x0000000000000000        0x0 contiki-cc2538dk.a(autostart.o)
 .data          0x0000000000000000        0x0 contiki-cc2538dk.a(autostart.o)
 .bss           0x0000000000000000        0x0 contiki-cc2538dk.a(autostart.o)
 .text.autostart_exit
                0x0000000000000000       0x12 contiki-cc2538dk.a(autostart.o)
 .text          0x0000000000000000        0x0 contiki-cc2538dk.a(energest.o)
 .data          0x0000000000000000        0x0 contiki-cc2538dk.a(energest.o)
 .bss           0x0000000000000000        0x0 contiki-cc2538dk.a(energest.o)
 .text.energest_type_set
                0x0000000000000000        0x2 contiki-cc2538dk.a(energest.o)
 .text.energest_type_time
                0x0000000000000000        0x4 contiki-cc2538dk.a(energest.o)
 .text.energest_flush
                0x0000000000000000        0x2 contiki-cc2538dk.a(energest.o)
 .text          0x0000000000000000        0x0 contiki-cc2538dk.a(etimer.o)
 .data          0x0000000000000000        0x0 contiki-cc2538dk.a(etimer.o)
 .bss           0x0000000000000000        0x0 contiki-cc2538dk.a(etimer.o)
 .text.etimer_restart
                0x0000000000000000       0x12 contiki-cc2538dk.a(etimer.o)
 .text.etimer_adjust
                0x0000000000000000        0xa contiki-cc2538dk.a(etimer.o)
 .text.etimer_start_time
                0x0000000000000000        0x4 contiki-cc2538dk.a(etimer.o)
 .text.etimer_next_expiration_time
                0x0000000000000000       0x14 contiki-cc2538dk.a(etimer.o)
 .text          0x0000000000000000        0x0 contiki-cc2538dk.a(ctimer.o)
 .data          0x0000000000000000        0x0 contiki-cc2538dk.a(ctimer.o)
 .bss           0x0000000000000000        0x0 contiki-cc2538dk.a(ctimer.o)
 .text.ctimer_restart
                0x0000000000000000       0x38 contiki-cc2538dk.a(ctimer.o)
 .text.ctimer_expired
                0x0000000000000000       0x34 contiki-cc2538dk.a(ctimer.o)
 .text          0x0000000000000000        0x0 contiki-cc2538dk.a(process.o)
 .data          0x0000000000000000        0x0 contiki-cc2538dk.a(process.o)
 .bss           0x0000000000000000        0x0 contiki-cc2538dk.a(process.o)
 .text.process_exit
                0x0000000000000000        0xc contiki-cc2538dk.a(process.o)
 .text.process_is_running
                0x0000000000000000        0xa contiki-cc2538dk.a(process.o)
 .text          0x0000000000000000        0x0 contiki-cc2538dk.a(rtimer.o)
 .data          0x0000000000000000        0x0 contiki-cc2538dk.a(rtimer.o)
 .bss           0x0000000000000000        0x0 contiki-cc2538dk.a(rtimer.o)
 .text          0x0000000000000000        0x0 contiki-cc2538dk.a(timer.o)
 .data          0x0000000000000000        0x0 contiki-cc2538dk.a(timer.o)
 .bss           0x0000000000000000        0x0 contiki-cc2538dk.a(timer.o)
 .text.timer_restart
                0x0000000000000000        0xc contiki-cc2538dk.a(timer.o)
 .text          0x0000000000000000        0x0 contiki-cc2538dk.a(serial-line.o)
 .data          0x0000000000000000        0x0 contiki-cc2538dk.a(serial-line.o)
 .bss           0x0000000000000000        0x0 contiki-cc2538dk.a(serial-line.o)
 .text          0x0000000000000000        0x0 contiki-cc2538dk.a(list.o)
 .data          0x0000000000000000        0x0 contiki-cc2538dk.a(list.o)
 .bss           0x0000000000000000        0x0 contiki-cc2538dk.a(list.o)
 .text.list_copy
                0x0000000000000000        0x6 contiki-cc2538dk.a(list.o)
 .text.list_chop
                0x0000000000000000       0x20 contiki-cc2538dk.a(list.o)
 .text.list_pop
                0x0000000000000000        0xc contiki-cc2538dk.a(list.o)
 .text.list_insert
                0x0000000000000000       0x10 contiki-cc2538dk.a(list.o)
 .text          0x0000000000000000        0x0 contiki-cc2538dk.a(random.o)
 .data          0x0000000000000000        0x0 contiki-cc2538dk.a(random.o)
 .bss           0x0000000000000000        0x0 contiki-cc2538dk.a(random.o)
 .text          0x0000000000000000        0x0 contiki-cc2538dk.a(ringbuf.o)
 .data          0x0000000000000000        0x0 contiki-cc2538dk.a(ringbuf.o)
 .bss           0x0000000000000000        0x0 contiki-cc2538dk.a(ringbuf.o)
 .text.ringbuf_size
                0x0000000000000000        0x6 contiki-cc2538dk.a(ringbuf.o)
 .text.ringbuf_elements
                0x0000000000000000        0xc contiki-cc2538dk.a(ringbuf.o)
 .text          0x0000000000000000        0x0 contiki-cc2538dk.a(uip6.o)
 .data          0x0000000000000000        0x0 contiki-cc2538dk.a(uip6.o)
 .bss           0x0000000000000000        0x0 contiki-cc2538dk.a(uip6.o)
 .text.uip_chksum
                0x0000000000000000       0x14 contiki-cc2538dk.a(uip6.o)
 .text.uip_ipchksum
                0x0000000000000000       0x20 contiki-cc2538dk.a(uip6.o)
 .text.uip_udp_new
                0x0000000000000000       0x9c contiki-cc2538dk.a(uip6.o)
 .text.uip_htons
                0x0000000000000000        0x6 contiki-cc2538dk.a(uip6.o)
 .text.uip_send
                0x0000000000000000       0x50 contiki-cc2538dk.a(uip6.o)
 .text          0x0000000000000000        0x0 contiki-cc2538dk.a(uip-nd6.o)
 .data          0x0000000000000000        0x0 contiki-cc2538dk.a(uip-nd6.o)
 .bss           0x0000000000000000        0x0 contiki-cc2538dk.a(uip-nd6.o)
 .text          0x0000000000000000        0x0 contiki-cc2538dk.a(sicslowpan.o)
 .data          0x0000000000000000        0x0 contiki-cc2538dk.a(sicslowpan.o)
 .bss           0x0000000000000000        0x0 contiki-cc2538dk.a(sicslowpan.o)
 .text.rime_sniffer_add
                0x0000000000000000        0xc contiki-cc2538dk.a(sicslowpan.o)
 .text.rime_sniffer_remove
                0x0000000000000000        0xc contiki-cc2538dk.a(sicslowpan.o)
 .text.sicslowpan_get_last_rssi
                0x0000000000000000        0xc contiki-cc2538dk.a(sicslowpan.o)
 .text          0x0000000000000000        0x0 contiki-cc2538dk.a(tcpip.o)
 .data          0x0000000000000000        0x0 contiki-cc2538dk.a(tcpip.o)
 .bss           0x0000000000000000        0x0 contiki-cc2538dk.a(tcpip.o)
 .text.udp_attach
                0x0000000000000000       0x10 contiki-cc2538dk.a(tcpip.o)
 .text.udp_new  0x0000000000000000       0x18 contiki-cc2538dk.a(tcpip.o)
 .text.udp_broadcast_new
                0x0000000000000000       0x40 contiki-cc2538dk.a(tcpip.o)
 .text.icmp6_new
                0x0000000000000000       0x20 contiki-cc2538dk.a(tcpip.o)
 .text.tcpip_poll_udp
                0x0000000000000000       0x10 contiki-cc2538dk.a(tcpip.o)
 .text          0x0000000000000000        0x0 contiki-cc2538dk.a(simple-udp.o)
 .data          0x0000000000000000        0x0 contiki-cc2538dk.a(simple-udp.o)
 .bss           0x0000000000000000        0x0 contiki-cc2538dk.a(simple-udp.o)
 .text.process_thread_simple_udp_process
                0x0000000000000000       0xa4 contiki-cc2538dk.a(simple-udp.o)
 .text.simple_udp_send
                0x0000000000000000       0x1c contiki-cc2538dk.a(simple-udp.o)
 .text.simple_udp_sendto_port
                0x0000000000000000       0x1a contiki-cc2538dk.a(simple-udp.o)
 .text.simple_udp_register
                0x0000000000000000       0x80 contiki-cc2538dk.a(simple-udp.o)
 .data.simple_udp_process
                0x0000000000000000       0x10 contiki-cc2538dk.a(simple-udp.o)
 .bss.started   0x0000000000000000        0x1 contiki-cc2538dk.a(simple-udp.o)
 .rodata.str1.1
                0x0000000000000000       0x13 contiki-cc2538dk.a(simple-udp.o)
 .bss.databuffer
                0x0000000000000000      0x514 contiki-cc2538dk.a(simple-udp.o)
 .text          0x0000000000000000        0x0 contiki-cc2538dk.a(rpl-dag.o)
 .data          0x0000000000000000        0x0 contiki-cc2538dk.a(rpl-dag.o)
 .bss           0x0000000000000000        0x0 contiki-cc2538dk.a(rpl-dag.o)
 .text.rpl_print_neighbor_list
                0x0000000000000000       0xd4 contiki-cc2538dk.a(rpl-dag.o)
 .text.rpl_get_parent_rank
                0x0000000000000000       0x18 contiki-cc2538dk.a(rpl-dag.o)
 .text.rpl_get_parent_link_metric
                0x0000000000000000       0x18 contiki-cc2538dk.a(rpl-dag.o)
 .text.rpl_set_default_instance
                0x0000000000000000        0xc contiki-cc2538dk.a(rpl-dag.o)
 .text.rpl_get_default_instance
                0x0000000000000000        0xc contiki-cc2538dk.a(rpl-dag.o)
 .text.rpl_free_dag
                0x0000000000000000       0x2e contiki-cc2538dk.a(rpl-dag.o)
 .text.rpl_free_instance
                0x0000000000000000       0x60 contiki-cc2538dk.a(rpl-dag.o)
 .text.rpl_set_root
                0x0000000000000000      0x108 contiki-cc2538dk.a(rpl-dag.o)
 .rodata.str1.1
                0x0000000000000000       0x6a contiki-cc2538dk.a(rpl-dag.o)
 .text          0x0000000000000000        0x0 contiki-cc2538dk.a(rpl-timers.o)
 .data          0x0000000000000000        0x0 contiki-cc2538dk.a(rpl-timers.o)
 .bss           0x0000000000000000        0x0 contiki-cc2538dk.a(rpl-timers.o)
 .text.rpl_schedule_dao_immediately
                0x0000000000000000        0x6 contiki-cc2538dk.a(rpl-timers.o)
 .text.rpl_cancel_dao
                0x0000000000000000       0x16 contiki-cc2538dk.a(rpl-timers.o)
 .text          0x0000000000000000        0x0 contiki-cc2538dk.a(rpl-ext-header.)
 .data          0x0000000000000000        0x0 contiki-cc2538dk.a(rpl-ext-header.)
 .bss           0x0000000000000000        0x0 contiki-cc2538dk.a(rpl-ext-header.)
 .text.rpl_remove_header
                0x0000000000000000       0x5c contiki-cc2538dk.a(rpl-ext-header.)
 .text          0x0000000000000000        0x0 contiki-cc2538dk.a(rpl.o)
 .data          0x0000000000000000        0x0 contiki-cc2538dk.a(rpl.o)
 .bss           0x0000000000000000        0x0 contiki-cc2538dk.a(rpl.o)
 .text.rpl_set_mode
                0x0000000000000000       0x30 contiki-cc2538dk.a(rpl.o)
 .text          0x0000000000000000        0x0 contiki-cc2538dk.a(rpl-mrhof.o)
 .data          0x0000000000000000        0x0 contiki-cc2538dk.a(rpl-mrhof.o)
 .bss           0x0000000000000000        0x0 contiki-cc2538dk.a(rpl-mrhof.o)
 .text          0x0000000000000000        0x0 contiki-cc2538dk.a(queuebuf.o)
 .data          0x0000000000000000        0x0 contiki-cc2538dk.a(queuebuf.o)
 .bss           0x0000000000000000        0x0 contiki-cc2538dk.a(queuebuf.o)
 .text.queuebuf_dataptr
                0x0000000000000000       0x18 contiki-cc2538dk.a(queuebuf.o)
 .text.queuebuf_datalen
                0x0000000000000000        0x8 contiki-cc2538dk.a(queuebuf.o)
 .text.queuebuf_addr
                0x0000000000000000        0xa contiki-cc2538dk.a(queuebuf.o)
 .text.queuebuf_debug_print
                0x0000000000000000        0x2 contiki-cc2538dk.a(queuebuf.o)
 .text          0x0000000000000000        0x0 contiki-cc2538dk.a(nbr-table.o)
 .data          0x0000000000000000        0x0 contiki-cc2538dk.a(nbr-table.o)
 .bss           0x0000000000000000        0x0 contiki-cc2538dk.a(nbr-table.o)
 .text          0x0000000000000000        0x0 contiki-cc2538dk.a(packetbuf.o)
 .data          0x0000000000000000        0x0 contiki-cc2538dk.a(packetbuf.o)
 .bss           0x0000000000000000        0x0 contiki-cc2538dk.a(packetbuf.o)
 .text.packetbuf_clear_hdr
                0x0000000000000000        0xc contiki-cc2538dk.a(packetbuf.o)
 .text.packetbuf_copyto_hdr
                0x0000000000000000       0x20 contiki-cc2538dk.a(packetbuf.o)
 .text.packetbuf_hdr_remove
                0x0000000000000000       0x10 contiki-cc2538dk.a(packetbuf.o)
 .text          0x0000000000000000        0x0 contiki-cc2538dk.a(netstack.o)
 .data          0x0000000000000000        0x0 contiki-cc2538dk.a(netstack.o)
 .bss           0x0000000000000000        0x0 contiki-cc2538dk.a(netstack.o)
 .text          0x0000000000000000        0x0 contiki-cc2538dk.a(linkaddr.o)
 .data          0x0000000000000000        0x0 contiki-cc2538dk.a(linkaddr.o)
 .bss           0x0000000000000000        0x0 contiki-cc2538dk.a(linkaddr.o)
 .text.linkaddr_set_node_addr
                0x0000000000000000        0xc contiki-cc2538dk.a(linkaddr.o)
 .text          0x0000000000000000        0x0 contiki-cc2538dk.a(framer-802154.o)
 .data          0x0000000000000000        0x0 contiki-cc2538dk.a(framer-802154.o)
 .bss           0x0000000000000000        0x0 contiki-cc2538dk.a(framer-802154.o)
 .text          0x0000000000000000        0x0 contiki-cc2538dk.a(csma.o)
 .data          0x0000000000000000        0x0 contiki-cc2538dk.a(csma.o)
 .bss           0x0000000000000000        0x0 contiki-cc2538dk.a(csma.o)
 .text          0x0000000000000000        0x0 contiki-cc2538dk.a(frame802154.o)
 .data          0x0000000000000000        0x0 contiki-cc2538dk.a(frame802154.o)
 .bss           0x0000000000000000        0x0 contiki-cc2538dk.a(frame802154.o)
 .text          0x0000000000000000        0x0 contiki-cc2538dk.a(mac.o)
 .data          0x0000000000000000        0x0 contiki-cc2538dk.a(mac.o)
 .bss           0x0000000000000000        0x0 contiki-cc2538dk.a(mac.o)
 .text          0x0000000000000000        0x0 contiki-cc2538dk.a(framer.o)
 .data          0x0000000000000000        0x0 contiki-cc2538dk.a(framer.o)
 .bss           0x0000000000000000        0x0 contiki-cc2538dk.a(framer.o)
 .text          0x0000000000000000        0x0 contiki-cc2538dk.a(contikimac.o)
 .data          0x0000000000000000        0x0 contiki-cc2538dk.a(contikimac.o)
 .bss           0x0000000000000000        0x0 contiki-cc2538dk.a(contikimac.o)
 .text.contikimac_debug_print
                0x0000000000000000        0x4 contiki-cc2538dk.a(contikimac.o)
 .text          0x0000000000000000        0x0 contiki-cc2538dk.a(nullsec.o)
 .data          0x0000000000000000        0x0 contiki-cc2538dk.a(nullsec.o)
 .bss           0x0000000000000000        0x0 contiki-cc2538dk.a(nullsec.o)
 .text          0x0000000000000000        0x0 contiki-cc2538dk.a(stimer.o)
 .data          0x0000000000000000        0x0 contiki-cc2538dk.a(stimer.o)
 .bss           0x0000000000000000        0x0 contiki-cc2538dk.a(stimer.o)
 .text.stimer_reset
                0x0000000000000000        0xa contiki-cc2538dk.a(stimer.o)
 .text.stimer_restart
                0x0000000000000000        0xc contiki-cc2538dk.a(stimer.o)
 .text.stimer_remaining
                0x0000000000000000       0x10 contiki-cc2538dk.a(stimer.o)
 .text.stimer_elapsed
                0x0000000000000000        0xe contiki-cc2538dk.a(stimer.o)
 .text          0x0000000000000000        0x0 contiki-cc2538dk.a(memb.o)
 .data          0x0000000000000000        0x0 contiki-cc2538dk.a(memb.o)
 .bss           0x0000000000000000        0x0 contiki-cc2538dk.a(memb.o)
 .text          0x0000000000000000        0x0 contiki-cc2538dk.a(uip-icmp6.o)
 .data          0x0000000000000000        0x0 contiki-cc2538dk.a(uip-icmp6.o)
 .bss           0x0000000000000000        0x0 contiki-cc2538dk.a(uip-icmp6.o)
 .text.uip_icmp6_echo_reply_callback_add
                0x0000000000000000       0x18 contiki-cc2538dk.a(uip-icmp6.o)
 .text.uip_icmp6_echo_reply_callback_rm
                0x0000000000000000        0xc contiki-cc2538dk.a(uip-icmp6.o)
 .text          0x0000000000000000        0x0 contiki-cc2538dk.a(uip-ds6.o)
 .data          0x0000000000000000        0x0 contiki-cc2538dk.a(uip-ds6.o)
 .bss           0x0000000000000000        0x0 contiki-cc2538dk.a(uip-ds6.o)
 .text.uip_ds6_prefix_rm
                0x0000000000000000        0x8 contiki-cc2538dk.a(uip-ds6.o)
 .text.uip_ds6_prefix_lookup
                0x0000000000000000       0x28 contiki-cc2538dk.a(uip-ds6.o)
 .text.uip_ds6_get_global
                0x0000000000000000       0x40 contiki-cc2538dk.a(uip-ds6.o)
 .text.uip_ds6_aaddr_add
                0x0000000000000000       0x4c contiki-cc2538dk.a(uip-ds6.o)
 .text.uip_ds6_aaddr_rm
                0x0000000000000000        0x8 contiki-cc2538dk.a(uip-ds6.o)
 .text.uip_ds6_aaddr_lookup
                0x0000000000000000       0x2c contiki-cc2538dk.a(uip-ds6.o)
 .bss.locaaddr  0x0000000000000000        0x4 contiki-cc2538dk.a(uip-ds6.o)
 .text          0x0000000000000000        0x0 contiki-cc2538dk.a(uip-ds6-route.o)
 .data          0x0000000000000000        0x0 contiki-cc2538dk.a(uip-ds6-route.o)
 .bss           0x0000000000000000        0x0 contiki-cc2538dk.a(uip-ds6-route.o)
 .text.uip_ds6_notification_add
                0x0000000000000000       0x18 contiki-cc2538dk.a(uip-ds6-route.o)
 .text.uip_ds6_notification_rm
                0x0000000000000000        0xc contiki-cc2538dk.a(uip-ds6-route.o)
 .text.uip_ds6_route_num_routes
                0x0000000000000000        0xc contiki-cc2538dk.a(uip-ds6-route.o)
 .text.uip_ds6_route_rm_by_nexthop
                0x0000000000000000       0x1c contiki-cc2538dk.a(uip-ds6-route.o)
 .text          0x0000000000000000        0x0 contiki-cc2538dk.a(uip-ds6-nbr.o)
 .data          0x0000000000000000        0x0 contiki-cc2538dk.a(uip-ds6-nbr.o)
 .bss           0x0000000000000000        0x0 contiki-cc2538dk.a(uip-ds6-nbr.o)
 .text.uip_ds6_nbr_get_ipaddr
                0x0000000000000000        0x2 contiki-cc2538dk.a(uip-ds6-nbr.o)
 .text.uip_ds6_nbr_num
                0x0000000000000000       0x24 contiki-cc2538dk.a(uip-ds6-nbr.o)
 .text.uip_ds6_get_least_lifetime_neighbor
                0x0000000000000000       0x48 contiki-cc2538dk.a(uip-ds6-nbr.o)
 .text          0x0000000000000000        0x0 contiki-cc2538dk.a(uip-debug.o)
 .data          0x0000000000000000        0x0 contiki-cc2538dk.a(uip-debug.o)
 .bss           0x0000000000000000        0x0 contiki-cc2538dk.a(uip-debug.o)
 .text.uip_debug_lladdr_print
                0x0000000000000000       0x34 contiki-cc2538dk.a(uip-debug.o)
 .text          0x0000000000000000        0x0 contiki-cc2538dk.a(uip-udp-packet.)
 .data          0x0000000000000000        0x0 contiki-cc2538dk.a(uip-udp-packet.)
 .bss           0x0000000000000000        0x0 contiki-cc2538dk.a(uip-udp-packet.)
 .text          0x0000000000000000        0x0 contiki-cc2538dk.a(rpl-icmp6.o)
 .data          0x0000000000000000        0x0 contiki-cc2538dk.a(rpl-icmp6.o)
 .bss           0x0000000000000000        0x0 contiki-cc2538dk.a(rpl-icmp6.o)
 .text          0x0000000000000000        0x0 contiki-cc2538dk.a(mac-sequence.o)
 .data          0x0000000000000000        0x0 contiki-cc2538dk.a(mac-sequence.o)
 .bss           0x0000000000000000        0x0 contiki-cc2538dk.a(mac-sequence.o)
 .data          0x0000000000000000        0x0 /usr/lib/gcc/arm-none-eabi/4.8/armv7-m/libgcc.a(_aeabi_uldivmod.o)
 .bss           0x0000000000000000        0x0 /usr/lib/gcc/arm-none-eabi/4.8/armv7-m/libgcc.a(_aeabi_uldivmod.o)
 .data          0x0000000000000000        0x0 /usr/lib/gcc/arm-none-eabi/4.8/armv7-m/libgcc.a(bpabi.o)
 .bss           0x0000000000000000        0x0 /usr/lib/gcc/arm-none-eabi/4.8/armv7-m/libgcc.a(bpabi.o)
 .data          0x0000000000000000        0x0 /usr/lib/gcc/arm-none-eabi/4.8/armv7-m/libgcc.a(_dvmd_tls.o)
 .bss           0x0000000000000000        0x0 /usr/lib/gcc/arm-none-eabi/4.8/armv7-m/libgcc.a(_dvmd_tls.o)
 .data          0x0000000000000000        0x0 /usr/lib/gcc/arm-none-eabi/4.8/armv7-m/libgcc.a(_divdi3.o)
 .bss           0x0000000000000000        0x0 /usr/lib/gcc/arm-none-eabi/4.8/armv7-m/libgcc.a(_divdi3.o)
 .ARM.extab     0x0000000000000000        0x0 /usr/lib/gcc/arm-none-eabi/4.8/armv7-m/libgcc.a(_divdi3.o)
 .data          0x0000000000000000        0x0 /usr/lib/gcc/arm-none-eabi/4.8/armv7-m/libgcc.a(_udivdi3.o)
 .bss           0x0000000000000000        0x0 /usr/lib/gcc/arm-none-eabi/4.8/armv7-m/libgcc.a(_udivdi3.o)
 .ARM.extab     0x0000000000000000        0x0 /usr/lib/gcc/arm-none-eabi/4.8/armv7-m/libgcc.a(_udivdi3.o)
 .text          0x0000000000000000        0x0 /usr/lib/gcc/arm-none-eabi/4.8/../../../arm-none-eabi/lib/armv7-m/libc.a(lib_a-memcmp.o)
 .data          0x0000000000000000        0x0 /usr/lib/gcc/arm-none-eabi/4.8/../../../arm-none-eabi/lib/armv7-m/libc.a(lib_a-memcmp.o)
 .bss           0x0000000000000000        0x0 /usr/lib/gcc/arm-none-eabi/4.8/../../../arm-none-eabi/lib/armv7-m/libc.a(lib_a-memcmp.o)
 .data          0x0000000000000000        0x0 /usr/lib/gcc/arm-none-eabi/4.8/../../../arm-none-eabi/lib/armv7-m/libc.a(lib_a-memcpy.o)
 .bss           0x0000000000000000        0x0 /usr/lib/gcc/arm-none-eabi/4.8/../../../arm-none-eabi/lib/armv7-m/libc.a(lib_a-memcpy.o)
 .text          0x0000000000000000        0x0 /usr/lib/gcc/arm-none-eabi/4.8/../../../arm-none-eabi/lib/armv7-m/libc.a(lib_a-memmove.o)
 .data          0x0000000000000000        0x0 /usr/lib/gcc/arm-none-eabi/4.8/../../../arm-none-eabi/lib/armv7-m/libc.a(lib_a-memmove.o)
 .bss           0x0000000000000000        0x0 /usr/lib/gcc/arm-none-eabi/4.8/../../../arm-none-eabi/lib/armv7-m/libc.a(lib_a-memmove.o)
 .text          0x0000000000000000        0x0 /usr/lib/gcc/arm-none-eabi/4.8/../../../arm-none-eabi/lib/armv7-m/libc.a(lib_a-memset.o)
 .data          0x0000000000000000        0x0 /usr/lib/gcc/arm-none-eabi/4.8/../../../arm-none-eabi/lib/armv7-m/libc.a(lib_a-memset.o)
 .bss           0x0000000000000000        0x0 /usr/lib/gcc/arm-none-eabi/4.8/../../../arm-none-eabi/lib/armv7-m/libc.a(lib_a-memset.o)
 .text          0x0000000000000000        0x0 /usr/lib/gcc/arm-none-eabi/4.8/../../../arm-none-eabi/lib/armv7-m/libc.a(lib_a-strlen.o)
 .data          0x0000000000000000        0x0 /usr/lib/gcc/arm-none-eabi/4.8/../../../arm-none-eabi/lib/armv7-m/libc.a(lib_a-strlen.o)
 .bss           0x0000000000000000        0x0 /usr/lib/gcc/arm-none-eabi/4.8/../../../arm-none-eabi/lib/armv7-m/libc.a(lib_a-strlen.o)
 .text.strlen   0x0000000000000000       0x5c /usr/lib/gcc/arm-none-eabi/4.8/../../../arm-none-eabi/lib/armv7-m/libc.a(lib_a-strlen.o)
 .debug_info    0x0000000000000000       0xb5 /usr/lib/gcc/arm-none-eabi/4.8/../../../arm-none-eabi/lib/armv7-m/libc.a(lib_a-strlen.o)
 .debug_abbrev  0x0000000000000000       0x70 /usr/lib/gcc/arm-none-eabi/4.8/../../../arm-none-eabi/lib/armv7-m/libc.a(lib_a-strlen.o)
 .debug_loc     0x0000000000000000       0x21 /usr/lib/gcc/arm-none-eabi/4.8/../../../arm-none-eabi/lib/armv7-m/libc.a(lib_a-strlen.o)
 .debug_aranges
                0x0000000000000000       0x20 /usr/lib/gcc/arm-none-eabi/4.8/../../../arm-none-eabi/lib/armv7-m/libc.a(lib_a-strlen.o)
 .debug_ranges  0x0000000000000000       0x10 /usr/lib/gcc/arm-none-eabi/4.8/../../../arm-none-eabi/lib/armv7-m/libc.a(lib_a-strlen.o)
 .debug_line    0x0000000000000000       0xe9 /usr/lib/gcc/arm-none-eabi/4.8/../../../arm-none-eabi/lib/armv7-m/libc.a(lib_a-strlen.o)
 .debug_str     0x0000000000000000      0x1ab /usr/lib/gcc/arm-none-eabi/4.8/../../../arm-none-eabi/lib/armv7-m/libc.a(lib_a-strlen.o)
 .comment       0x0000000000000000       0x20 /usr/lib/gcc/arm-none-eabi/4.8/../../../arm-none-eabi/lib/armv7-m/libc.a(lib_a-strlen.o)
 .ARM.attributes
                0x0000000000000000       0x2d /usr/lib/gcc/arm-none-eabi/4.8/../../../arm-none-eabi/lib/armv7-m/libc.a(lib_a-strlen.o)
 .debug_frame   0x0000000000000000       0x20 /usr/lib/gcc/arm-none-eabi/4.8/../../../arm-none-eabi/lib/armv7-m/libc.a(lib_a-strlen.o)
 .text          0x0000000000000000        0x0 /usr/lib/gcc/arm-none-eabi/4.8/../../../arm-none-eabi/lib/armv7-m/libc.a(lib_a-strncmp.o)
 .data          0x0000000000000000        0x0 /usr/lib/gcc/arm-none-eabi/4.8/../../../arm-none-eabi/lib/armv7-m/libc.a(lib_a-strncmp.o)
 .bss           0x0000000000000000        0x0 /usr/lib/gcc/arm-none-eabi/4.8/../../../arm-none-eabi/lib/armv7-m/libc.a(lib_a-strncmp.o)
 .text.strncmp  0x0000000000000000       0xb4 /usr/lib/gcc/arm-none-eabi/4.8/../../../arm-none-eabi/lib/armv7-m/libc.a(lib_a-strncmp.o)
 .debug_info    0x0000000000000000       0xf5 /usr/lib/gcc/arm-none-eabi/4.8/../../../arm-none-eabi/lib/armv7-m/libc.a(lib_a-strncmp.o)
 .debug_abbrev  0x0000000000000000       0x81 /usr/lib/gcc/arm-none-eabi/4.8/../../../arm-none-eabi/lib/armv7-m/libc.a(lib_a-strncmp.o)
 .debug_loc     0x0000000000000000      0x139 /usr/lib/gcc/arm-none-eabi/4.8/../../../arm-none-eabi/lib/armv7-m/libc.a(lib_a-strncmp.o)
 .debug_aranges
                0x0000000000000000       0x20 /usr/lib/gcc/arm-none-eabi/4.8/../../../arm-none-eabi/lib/armv7-m/libc.a(lib_a-strncmp.o)
 .debug_ranges  0x0000000000000000       0x10 /usr/lib/gcc/arm-none-eabi/4.8/../../../arm-none-eabi/lib/armv7-m/libc.a(lib_a-strncmp.o)
 .debug_line    0x0000000000000000      0x144 /usr/lib/gcc/arm-none-eabi/4.8/../../../arm-none-eabi/lib/armv7-m/libc.a(lib_a-strncmp.o)
 .debug_str     0x0000000000000000      0x1a0 /usr/lib/gcc/arm-none-eabi/4.8/../../../arm-none-eabi/lib/armv7-m/libc.a(lib_a-strncmp.o)
 .comment       0x0000000000000000       0x20 /usr/lib/gcc/arm-none-eabi/4.8/../../../arm-none-eabi/lib/armv7-m/libc.a(lib_a-strncmp.o)
 .ARM.attributes
                0x0000000000000000       0x2d /usr/lib/gcc/arm-none-eabi/4.8/../../../arm-none-eabi/lib/armv7-m/libc.a(lib_a-strncmp.o)
 .debug_frame   0x0000000000000000       0x28 /usr/lib/gcc/arm-none-eabi/4.8/../../../arm-none-eabi/lib/armv7-m/libc.a(lib_a-strncmp.o)

Memory Configuration

Name             Origin             Length             Attributes
FLASH            0x0000000000200000 0x000000000007ffd4 xr
FLASH_CCA        0x000000000027ffd4 0x000000000000002c xr
SRAM             0x0000000020000000 0x0000000000008000 xrw
*default*        0x0000000000000000 0xffffffffffffffff

Linker script and memory map

LOAD obj_cc2538dk/startup-gcc.o
LOAD dummysensor.co
LOAD contiki-cc2538dk.a
START GROUP
LOAD /usr/lib/gcc/arm-none-eabi/4.8/armv7-m/libgcc.a
LOAD /usr/lib/gcc/arm-none-eabi/4.8/../../../arm-none-eabi/lib/armv7-m/libc.a
END GROUP

.text           0x0000000000200000     0x9a53
                0x0000000000200000                _text = .
 *(SORT(.vectors))
 .vectors       0x0000000000200000      0x28c obj_cc2538dk/startup-gcc.o
                0x0000000000200000                vectors
 *(SORT(.text*))
 .text.reset_handler
                0x000000000020028c       0x40 obj_cc2538dk/startup-gcc.o
                0x000000000020028c                reset_handler
 .text.ResetWd  0x00000000002002cc       0x14 dummysensor.co
 .text.Payload  0x00000000002002e0       0x90 dummysensor.co
                0x00000000002002e0                Payload
 .text.process_thread_dummysensor_process
                0x0000000000200370       0xdc dummysensor.co
 .text.leds_init
                0x000000000020044c       0x14 contiki-cc2538dk.a(leds.o)
                0x000000000020044c                leds_init
 .text.leds_on  0x0000000000200460       0x10 contiki-cc2538dk.a(leds.o)
                0x0000000000200460                leds_on
 .text.leds_off
                0x0000000000200470       0x14 contiki-cc2538dk.a(leds.o)
                0x0000000000200470                leds_off
 .text.leds_arch_init
                0x0000000000200484       0x10 contiki-cc2538dk.a(leds-arch.o)
                0x0000000000200484                leds_arch_init
 .text.leds_arch_set
                0x0000000000200494        0xc contiki-cc2538dk.a(leds-arch.o)
                0x0000000000200494                leds_arch_set
 .text.startup.main
                0x00000000002004a0      0x1a0 contiki-cc2538dk.a(contiki-main.o)
                0x00000000002004a0                main
 .text.process_thread_sensors_process
                0x0000000000200640       0xd4 contiki-cc2538dk.a(sensors.o)
 .text.sensors_changed
                0x0000000000200714       0x38 contiki-cc2538dk.a(sensors.o)
                0x0000000000200714                sensors_changed
 .text.config_select
                0x000000000020074c       0x30 contiki-cc2538dk.a(button-sensor.o)
 .text.config_left
                0x000000000020077c       0x30 contiki-cc2538dk.a(button-sensor.o)
 .text.config_right
                0x00000000002007ac       0x30 contiki-cc2538dk.a(button-sensor.o)
 .text.config_up
                0x00000000002007dc       0x30 contiki-cc2538dk.a(button-sensor.o)
 .text.config_down
                0x000000000020080c       0x30 contiki-cc2538dk.a(button-sensor.o)
 .text.btn_callback
                0x000000000020083c       0x64 contiki-cc2538dk.a(button-sensor.o)
 .text.button_sensor_init
                0x00000000002008a0        0xc contiki-cc2538dk.a(button-sensor.o)
                0x00000000002008a0                button_sensor_init
 .text.value    0x00000000002008ac       0x24 contiki-cc2538dk.a(als-sensor.o)
 .text.configure
                0x00000000002008d0       0x54 contiki-cc2538dk.a(als-sensor.o)
 .text.update_ticks
                0x0000000000200924       0x50 contiki-cc2538dk.a(clock.o)
 .text.clock_init
                0x0000000000200974       0x54 contiki-cc2538dk.a(clock.o)
                0x0000000000200974                clock_init
 .text.clock_time
                0x00000000002009c8       0x14 contiki-cc2538dk.a(clock.o)
                0x00000000002009c8                clock_time
 .text.clock_seconds
                0x00000000002009dc       0x14 contiki-cc2538dk.a(clock.o)
                0x00000000002009dc                clock_seconds
 .text.clock_delay_usec
                0x00000000002009f0       0x1c contiki-cc2538dk.a(clock.o)
                0x00000000002009f0                clock_delay_usec
 .text.clock_adjust
                0x0000000000200a0c       0x20 contiki-cc2538dk.a(clock.o)
                0x0000000000200a0c                clock_adjust
 .text.rtimer_arch_next_trigger
                0x0000000000200a2c        0xc contiki-cc2538dk.a(rtimer-arch.o)
                0x0000000000200a2c                rtimer_arch_next_trigger
 .text.rtimer_arch_now
                0x0000000000200a38       0x24 contiki-cc2538dk.a(rtimer-arch.o)
                0x0000000000200a38                rtimer_arch_now
 .text.rtimer_arch_schedule
                0x0000000000200a5c       0x58 contiki-cc2538dk.a(rtimer-arch.o)
                0x0000000000200a5c                rtimer_arch_schedule
 .text.rtimer_isr
                0x0000000000200ab4       0x24 contiki-cc2538dk.a(rtimer-arch.o)
                0x0000000000200ab4                rtimer_isr
 .text.permit_pm1
                0x0000000000200ad8       0x2c contiki-cc2538dk.a(uart.o)
 .text.uart_isr
                0x0000000000200b04       0x64 contiki-cc2538dk.a(uart.o)
 .text.uart_init
                0x0000000000200b68      0x184 contiki-cc2538dk.a(uart.o)
                0x0000000000200b68                uart_init
 .text.uart_set_input
                0x0000000000200cec       0x10 contiki-cc2538dk.a(uart.o)
                0x0000000000200cec                uart_set_input
 .text.uart_write_byte
                0x0000000000200cfc       0x1c contiki-cc2538dk.a(uart.o)
                0x0000000000200cfc                uart_write_byte
 .text.watchdog_init
                0x0000000000200d18        0xc contiki-cc2538dk.a(watchdog.o)
                0x0000000000200d18                watchdog_init
 .text.watchdog_start
                0x0000000000200d24        0xc contiki-cc2538dk.a(watchdog.o)
                0x0000000000200d24                watchdog_start
 .text.watchdog_periodic
                0x0000000000200d30       0x10 contiki-cc2538dk.a(watchdog.o)
                0x0000000000200d30                watchdog_periodic
 .text.nvic_init
                0x0000000000200d40       0x3c contiki-cc2538dk.a(nvic.o)
                0x0000000000200d40                nvic_init
 .text.nvic_interrupt_enable
                0x0000000000200d7c       0x1c contiki-cc2538dk.a(nvic.o)
                0x0000000000200d7c                nvic_interrupt_enable
 .text.nvic_interrupt_disable
                0x0000000000200d98       0x1c contiki-cc2538dk.a(nvic.o)
                0x0000000000200d98                nvic_interrupt_disable
 .text.nvic_interrupt_unpend
                0x0000000000200db4       0x1c contiki-cc2538dk.a(nvic.o)
                0x0000000000200db4                nvic_interrupt_unpend
 .text.sys_ctrl_init
                0x0000000000200dd0       0x28 contiki-cc2538dk.a(sys-ctrl.o)
                0x0000000000200dd0                sys_ctrl_init
 .text.gpio_register_callback
                0x0000000000200df8       0x10 contiki-cc2538dk.a(gpio.o)
                0x0000000000200df8                gpio_register_callback
 .text.notify   0x0000000000200e08       0x30 contiki-cc2538dk.a(gpio.o)
                0x0000000000200e08                notify
 .text.gpio_port_isr
                0x0000000000200e38       0x4c contiki-cc2538dk.a(gpio.o)
 .text.gpio_init
                0x0000000000200e84       0x10 contiki-cc2538dk.a(gpio.o)
                0x0000000000200e84                gpio_init
 .text.ioc_init
                0x0000000000200e94       0x1c contiki-cc2538dk.a(ioc.o)
                0x0000000000200e94                ioc_init
 .text.ioc_set_over
                0x0000000000200eb0       0x14 contiki-cc2538dk.a(ioc.o)
                0x0000000000200eb0                ioc_set_over
 .text.ioc_set_sel
                0x0000000000200ec4       0x14 contiki-cc2538dk.a(ioc.o)
                0x0000000000200ec4                ioc_set_sel
 .text.adc_init
                0x0000000000200ed8       0x10 contiki-cc2538dk.a(adc.o)
                0x0000000000200ed8                adc_init
 .text.adc_get  0x0000000000200ee8       0x74 contiki-cc2538dk.a(adc.o)
                0x0000000000200ee8                adc_get
 .text.crypto_isr
                0x0000000000200f5c       0x24 contiki-cc2538dk.a(crypto.o)
                0x0000000000200f5c                crypto_isr
 .text.on       0x0000000000200f80       0x2c contiki-cc2538dk.a(cc2538-rf.o)
 .text.off      0x0000000000200fac       0x38 contiki-cc2538dk.a(cc2538-rf.o)
 .text.set_channel
                0x0000000000200fe4       0x48 contiki-cc2538dk.a(cc2538-rf.o)
 .text.channel_clear
                0x000000000020102c       0x3c contiki-cc2538dk.a(cc2538-rf.o)
 .text.receiving_packet
                0x0000000000201068       0x18 contiki-cc2538dk.a(cc2538-rf.o)
 .text.pending_packet
                0x0000000000201080       0x10 contiki-cc2538dk.a(cc2538-rf.o)
 .text.get_value
                0x0000000000201090      0x11c contiki-cc2538dk.a(cc2538-rf.o)
 .text.prepare  0x00000000002011ac       0x64 contiki-cc2538dk.a(cc2538-rf.o)
 .text.transmit
                0x0000000000201210       0x8c contiki-cc2538dk.a(cc2538-rf.o)
 .text.set_frame_filtering
                0x000000000020129c       0x18 contiki-cc2538dk.a(cc2538-rf.o)
 .text.set_value
                0x00000000002012b4       0xd8 contiki-cc2538dk.a(cc2538-rf.o)
 .text.get_object
                0x000000000020138c       0x34 contiki-cc2538dk.a(cc2538-rf.o)
 .text.set_object
                0x00000000002013c0       0x34 contiki-cc2538dk.a(cc2538-rf.o)
 .text.read     0x00000000002013f4       0xc8 contiki-cc2538dk.a(cc2538-rf.o)
 .text.init     0x00000000002014bc       0xcc contiki-cc2538dk.a(cc2538-rf.o)
 .text.process_thread_cc2538_rf_process
                0x0000000000201588       0x74 contiki-cc2538dk.a(cc2538-rf.o)
 .text.cc2538_rf_rx_tx_isr
                0x00000000002015fc       0x18 contiki-cc2538dk.a(cc2538-rf.o)
                0x00000000002015fc                cc2538_rf_rx_tx_isr
 .text.cc2538_rf_err_isr
                0x0000000000201614       0x2c contiki-cc2538dk.a(cc2538-rf.o)
                0x0000000000201614                cc2538_rf_err_isr
 .text.udma_init
                0x0000000000201640       0x30 contiki-cc2538dk.a(udma.o)
                0x0000000000201640                udma_init
 .text.udma_set_channel_src
                0x0000000000201670       0x10 contiki-cc2538dk.a(udma.o)
                0x0000000000201670                udma_set_channel_src
 .text.udma_set_channel_dst
                0x0000000000201680       0x14 contiki-cc2538dk.a(udma.o)
                0x0000000000201680                udma_set_channel_dst
 .text.udma_set_channel_control_word
                0x0000000000201694       0x14 contiki-cc2538dk.a(udma.o)
                0x0000000000201694                udma_set_channel_control_word
 .text.udma_channel_enable
                0x00000000002016a8       0x18 contiki-cc2538dk.a(udma.o)
                0x00000000002016a8                udma_channel_enable
 .text.udma_channel_mask_set
                0x00000000002016c0       0x18 contiki-cc2538dk.a(udma.o)
                0x00000000002016c0                udma_channel_mask_set
 .text.udma_channel_sw_request
                0x00000000002016d8       0x18 contiki-cc2538dk.a(udma.o)
                0x00000000002016d8                udma_channel_sw_request
 .text.udma_channel_get_mode
                0x00000000002016f0       0x1c contiki-cc2538dk.a(udma.o)
                0x00000000002016f0                udma_channel_get_mode
 .text.udma_isr
                0x000000000020170c       0x10 contiki-cc2538dk.a(udma.o)
                0x000000000020170c                udma_isr
 .text.udma_err_isr
                0x000000000020171c        0xc contiki-cc2538dk.a(udma.o)
                0x000000000020171c                udma_err_isr
 .text.select_32_mhz_xosc
                0x0000000000201728       0x2c contiki-cc2538dk.a(lpm.o)
 .text.lpm_exit
                0x0000000000201754       0x34 contiki-cc2538dk.a(lpm.o)
                0x0000000000201754                lpm_exit
 .text.lpm_enter
                0x0000000000201788       0xb0 contiki-cc2538dk.a(lpm.o)
                0x0000000000201788                lpm_enter
 .text.lpm_register_peripheral
                0x0000000000201838       0x20 contiki-cc2538dk.a(lpm.o)
                0x0000000000201838                lpm_register_peripheral
 .text.lpm_init
                0x0000000000201858       0x24 contiki-cc2538dk.a(lpm.o)
                0x0000000000201858                lpm_init
 .text.ieee_addr_cpy_to
                0x000000000020187c       0x70 contiki-cc2538dk.a(ieee-addr.o)
                0x000000000020187c                ieee_addr_cpy_to
 .text.printf   0x00000000002018ec       0x20 contiki-cc2538dk.a(dbg-printf.o)
                0x00000000002018ec                printf
 .text.fill_space
                0x000000000020190c       0x30 contiki-cc2538dk.a(strformat.o)
 .text.format_str_v
                0x000000000020193c      0x6d0 contiki-cc2538dk.a(strformat.o)
                0x000000000020193c                format_str_v
 .text.update_time
                0x000000000020200c       0x40 contiki-cc2538dk.a(etimer.o)
 .text.etimer_request_poll
                0x000000000020204c        0xc contiki-cc2538dk.a(etimer.o)
                0x000000000020204c                etimer_request_poll
 .text.process_thread_etimer_process
                0x0000000000202058       0x94 contiki-cc2538dk.a(etimer.o)
 .text.add_timer
                0x00000000002020ec       0x40 contiki-cc2538dk.a(etimer.o)
 .text.etimer_pending
                0x000000000020212c       0x10 contiki-cc2538dk.a(etimer.o)
                0x000000000020212c                etimer_pending
 .text.etimer_stop
                0x000000000020213c       0x34 contiki-cc2538dk.a(etimer.o)
                0x000000000020213c                etimer_stop
 .text.process_thread_ctimer_process
                0x0000000000202170       0x80 contiki-cc2538dk.a(ctimer.o)
 .text.ctimer_init
                0x00000000002021f0       0x28 contiki-cc2538dk.a(ctimer.o)
                0x00000000002021f0                ctimer_init
 .text.ctimer_set
                0x0000000000202218       0x40 contiki-cc2538dk.a(ctimer.o)
                0x0000000000202218                ctimer_set
 .text.ctimer_reset
                0x0000000000202258       0x38 contiki-cc2538dk.a(ctimer.o)
                0x0000000000202258                ctimer_reset
 .text.ctimer_stop
                0x0000000000202290       0x2c contiki-cc2538dk.a(ctimer.o)
                0x0000000000202290                ctimer_stop
 .text.call_process.part.0
                0x00000000002022bc       0x38 contiki-cc2538dk.a(process.o)
 .text.exit_process
                0x00000000002022f4       0x84 contiki-cc2538dk.a(process.o)
 .text.do_poll  0x0000000000202378       0x30 contiki-cc2538dk.a(process.o)
 .text.process_alloc_event
                0x00000000002023a8       0x10 contiki-cc2538dk.a(process.o)
                0x00000000002023a8                process_alloc_event
 .text.process_init
                0x00000000002023b8       0x30 contiki-cc2538dk.a(process.o)
                0x00000000002023b8                process_init
 .text.process_run
                0x00000000002023e8       0xb0 contiki-cc2538dk.a(process.o)
                0x00000000002023e8                process_run
 .text.process_nevents
                0x0000000000202498       0x14 contiki-cc2538dk.a(process.o)
                0x0000000000202498                process_nevents
 .text.process_post
                0x00000000002024ac       0x44 contiki-cc2538dk.a(process.o)
                0x00000000002024ac                process_post
 .text.process_post_synch
                0x00000000002024f0       0x14 contiki-cc2538dk.a(process.o)
                0x00000000002024f0                process_post_synch
 .text.process_start
                0x0000000000202504       0x30 contiki-cc2538dk.a(process.o)
                0x0000000000202504                process_start
 .text.process_poll
                0x0000000000202534       0x18 contiki-cc2538dk.a(process.o)
                0x0000000000202534                process_poll
 .text.rtimer_set
                0x000000000020254c       0x24 contiki-cc2538dk.a(rtimer.o)
                0x000000000020254c                rtimer_set
 .text.rtimer_run_next
                0x0000000000202570       0x28 contiki-cc2538dk.a(rtimer.o)
                0x0000000000202570                rtimer_run_next
 .text.process_thread_serial_line_process
                0x0000000000202598       0x98 contiki-cc2538dk.a(serial-line.o)
 .text.serial_line_input_byte
                0x0000000000202630       0x44 contiki-cc2538dk.a(serial-line.o)
                0x0000000000202630                serial_line_input_byte
 .text.serial_line_init
                0x0000000000202674       0x24 contiki-cc2538dk.a(serial-line.o)
                0x0000000000202674                serial_line_init
 .text.random_rand
                0x0000000000202698       0x24 contiki-cc2538dk.a(random.o)
                0x0000000000202698                random_rand
 .text.random_init
                0x00000000002026bc       0x7c contiki-cc2538dk.a(random.o)
                0x00000000002026bc                random_init
 .text.upper_layer_chksum
                0x0000000000202738       0x54 contiki-cc2538dk.a(uip6.o)
 .text.ext_hdr_options_process
                0x000000000020278c       0xa8 contiki-cc2538dk.a(uip6.o)
 .text.uip_init
                0x0000000000202834       0x3c contiki-cc2538dk.a(uip6.o)
                0x0000000000202834                uip_init
 .text.remove_ext_hdr
                0x0000000000202870       0x5c contiki-cc2538dk.a(uip6.o)
                0x0000000000202870                remove_ext_hdr
 .text.uip_process
                0x00000000002028cc      0x460 contiki-cc2538dk.a(uip6.o)
                0x00000000002028cc                uip_process
 .text.na_input
                0x0000000000202d2c      0x1cc contiki-cc2538dk.a(uip-nd6.o)
 .text.ns_input
                0x0000000000202ef8      0x258 contiki-cc2538dk.a(uip-nd6.o)
 .text.uip_nd6_ns_output
                0x0000000000203150      0x164 contiki-cc2538dk.a(uip-nd6.o)
                0x0000000000203150                uip_nd6_ns_output
 .text.uip_nd6_init
                0x00000000002032b4       0x1c contiki-cc2538dk.a(uip-nd6.o)
                0x00000000002032b4                uip_nd6_init
 .text.sicslowpan_init
                0x00000000002032d0       0x24 contiki-cc2538dk.a(sicslowpan.o)
                0x00000000002032d0                sicslowpan_init
 .text.set_packet_attrs
                0x00000000002032f4       0x44 contiki-cc2538dk.a(sicslowpan.o)
 .text.compress_addr_64
                0x0000000000203338       0x90 contiki-cc2538dk.a(sicslowpan.o)
 .text.addr_context_lookup_by_prefix
                0x00000000002033c8       0x28 contiki-cc2538dk.a(sicslowpan.o)
 .text.send_packet
                0x00000000002033f0       0x24 contiki-cc2538dk.a(sicslowpan.o)
 .text.packet_sent
                0x0000000000203414       0x28 contiki-cc2538dk.a(sicslowpan.o)
 .text.uncompress_addr
                0x000000000020343c       0x7c contiki-cc2538dk.a(sicslowpan.o)
 .text.output   0x00000000002034b8      0x684 contiki-cc2538dk.a(sicslowpan.o)
 .text.input    0x0000000000203b3c      0x5fc contiki-cc2538dk.a(sicslowpan.o)
 .text.tcpip_output
                0x0000000000204138       0x14 contiki-cc2538dk.a(tcpip.o)
                0x0000000000204138                tcpip_output
 .text.tcpip_set_outputfunc
                0x000000000020414c        0xc contiki-cc2538dk.a(tcpip.o)
                0x000000000020414c                tcpip_set_outputfunc
 .text.tcpip_icmp6_call
                0x0000000000204158       0x28 contiki-cc2538dk.a(tcpip.o)
                0x0000000000204158                tcpip_icmp6_call
 .text.tcpip_input
                0x0000000000204180       0x24 contiki-cc2538dk.a(tcpip.o)
                0x0000000000204180                tcpip_input
 .text.tcpip_ipv6_output
                0x00000000002041a4      0x124 contiki-cc2538dk.a(tcpip.o)
                0x00000000002041a4                tcpip_ipv6_output
 .text.process_thread_tcpip_process
                0x00000000002042c8       0xdc contiki-cc2538dk.a(tcpip.o)
 .text.tcpip_uipcall
                0x00000000002043a4       0x2c contiki-cc2538dk.a(tcpip.o)
                0x00000000002043a4                tcpip_uipcall
 .text.rpl_set_preferred_parent
                0x00000000002043d0       0x28 contiki-cc2538dk.a(rpl-dag.o)
 .text.set_ip_from_prefix
                0x00000000002043f8       0x2c contiki-cc2538dk.a(rpl-dag.o)
 .text.find_parent_any_dag_any_instance
                0x0000000000204424       0x1c contiki-cc2538dk.a(rpl-dag.o)
 .text.rpl_get_nbr
                0x0000000000204440       0x28 contiki-cc2538dk.a(rpl-dag.o)
                0x0000000000204440                rpl_get_nbr
 .text.rpl_dag_init
                0x0000000000204468       0x14 contiki-cc2538dk.a(rpl-dag.o)
                0x0000000000204468                rpl_dag_init
 .text.rpl_get_parent
                0x000000000020447c       0x10 contiki-cc2538dk.a(rpl-dag.o)
                0x000000000020447c                rpl_get_parent
 .text.rpl_get_parent_ipaddr
                0x000000000020448c       0x18 contiki-cc2538dk.a(rpl-dag.o)
                0x000000000020448c                rpl_get_parent_ipaddr
 .text.rpl_alloc_instance
                0x00000000002044a4       0x34 contiki-cc2538dk.a(rpl-dag.o)
                0x00000000002044a4                rpl_alloc_instance
 .text.rpl_add_parent
                0x00000000002044d8       0x44 contiki-cc2538dk.a(rpl-dag.o)
                0x00000000002044d8                rpl_add_parent
 .text.rpl_select_parent
                0x000000000020451c       0x6c contiki-cc2538dk.a(rpl-dag.o)
                0x000000000020451c                rpl_select_parent
 .text.rpl_remove_parent
                0x0000000000204588       0x1c contiki-cc2538dk.a(rpl-dag.o)
                0x0000000000204588                rpl_remove_parent
 .text.remove_parents.constprop.4
                0x00000000002045a4       0x2c contiki-cc2538dk.a(rpl-dag.o)
 .text.rpl_get_any_dag
                0x00000000002045d0       0x18 contiki-cc2538dk.a(rpl-dag.o)
                0x00000000002045d0                rpl_get_any_dag
 .text.rpl_get_instance
                0x00000000002045e8       0x20 contiki-cc2538dk.a(rpl-dag.o)
                0x00000000002045e8                rpl_get_instance
 .text.rpl_find_of
                0x0000000000204608       0x14 contiki-cc2538dk.a(rpl-dag.o)
                0x0000000000204608                rpl_find_of
 .text.rpl_join_instance
                0x000000000020461c      0x124 contiki-cc2538dk.a(rpl-dag.o)
                0x000000000020461c                rpl_join_instance
 .text.rpl_local_repair
                0x0000000000204740       0x5c contiki-cc2538dk.a(rpl-dag.o)
                0x0000000000204740                rpl_local_repair
 .text.rpl_recalculate_ranks
                0x000000000020479c       0x3c contiki-cc2538dk.a(rpl-dag.o)
                0x000000000020479c                rpl_recalculate_ranks
 .text.rpl_lock_parent
                0x00000000002047d8       0x10 contiki-cc2538dk.a(rpl-dag.o)
                0x00000000002047d8                rpl_lock_parent
 .text.new_dio_interval
                0x00000000002047e8       0x58 contiki-cc2538dk.a(rpl-timers.o)
 .text.handle_periodic_timer
                0x0000000000204840       0x38 contiki-cc2538dk.a(rpl-timers.o)
 .text.set_dao_lifetime_timer
                0x0000000000204878       0x3c contiki-cc2538dk.a(rpl-timers.o)
 .text.handle_dio_timer
                0x00000000002048b4       0x80 contiki-cc2538dk.a(rpl-timers.o)
 .text.schedule_dao
                0x0000000000204934       0x54 contiki-cc2538dk.a(rpl-timers.o)
 .text.handle_dao_timer
                0x0000000000204988       0x58 contiki-cc2538dk.a(rpl-timers.o)
 .text.rpl_reset_periodic_timer
                0x00000000002049e0       0x34 contiki-cc2538dk.a(rpl-timers.o)
                0x00000000002049e0                rpl_reset_periodic_timer
 .text.rpl_schedule_probing
                0x0000000000204a14       0x30 contiki-cc2538dk.a(rpl-timers.o)
                0x0000000000204a14                rpl_schedule_probing
 .text.handle_probing_timer
                0x0000000000204a44       0xd4 contiki-cc2538dk.a(rpl-timers.o)
 .text.rpl_verify_header
                0x0000000000204b18       0x98 contiki-cc2538dk.a(rpl-ext-header.)
                0x0000000000204b18                rpl_verify_header
 .text.rpl_update_header_empty
                0x0000000000204bb0      0x138 contiki-cc2538dk.a(rpl-ext-header.)
                0x0000000000204bb0                rpl_update_header_empty
 .text.rpl_update_header_final
                0x0000000000204ce8       0x84 contiki-cc2538dk.a(rpl-ext-header.)
                0x0000000000204ce8                rpl_update_header_final
 .text.rpl_invert_header
                0x0000000000204d6c       0x68 contiki-cc2538dk.a(rpl-ext-header.)
                0x0000000000204d6c                rpl_invert_header
 .text.rpl_insert_header
                0x0000000000204dd4       0x1c contiki-cc2538dk.a(rpl-ext-header.)
                0x0000000000204dd4                rpl_insert_header
 .text.rpl_get_mode
                0x0000000000204df0        0xc contiki-cc2538dk.a(rpl.o)
                0x0000000000204df0                rpl_get_mode
 .text.rpl_purge_routes
                0x0000000000204dfc       0x64 contiki-cc2538dk.a(rpl.o)
                0x0000000000204dfc                rpl_purge_routes
 .text.rpl_link_neighbor_callback
                0x0000000000204e60       0x70 contiki-cc2538dk.a(rpl.o)
                0x0000000000204e60                rpl_link_neighbor_callback
 .text.rpl_ipv6_neighbor_callback
                0x0000000000204ed0       0x28 contiki-cc2538dk.a(rpl.o)
                0x0000000000204ed0                rpl_ipv6_neighbor_callback
 .text.rpl_init
                0x0000000000204ef8       0x58 contiki-cc2538dk.a(rpl.o)
                0x0000000000204ef8                rpl_init
 .text.queuebuf_init
                0x0000000000204f50       0x1c contiki-cc2538dk.a(queuebuf.o)
                0x0000000000204f50                queuebuf_init
 .text.queuebuf_numfree
                0x0000000000204f6c        0xc contiki-cc2538dk.a(queuebuf.o)
                0x0000000000204f6c                queuebuf_numfree
 .text.queuebuf_new_from_packetbuf
                0x0000000000204f78       0x44 contiki-cc2538dk.a(queuebuf.o)
                0x0000000000204f78                queuebuf_new_from_packetbuf
 .text.queuebuf_free
                0x0000000000204fbc       0x2c contiki-cc2538dk.a(queuebuf.o)
                0x0000000000204fbc                queuebuf_free
 .text.queuebuf_to_packetbuf
                0x0000000000204fe8       0x30 contiki-cc2538dk.a(queuebuf.o)
                0x0000000000204fe8                queuebuf_to_packetbuf
 .text.index_from_key
                0x0000000000205018       0x20 contiki-cc2538dk.a(nbr-table.o)
 .text.index_from_lladdr
                0x0000000000205038       0x40 contiki-cc2538dk.a(nbr-table.o)
 .text.key_from_item
                0x0000000000205078       0x2c contiki-cc2538dk.a(nbr-table.o)
 .text.nbr_get_bit.constprop.0
                0x00000000002050a4       0x30 contiki-cc2538dk.a(nbr-table.o)
 .text.nbr_table_register
                0x00000000002050d4       0x28 contiki-cc2538dk.a(nbr-table.o)
                0x00000000002050d4                nbr_table_register
 .text.nbr_table_head
                0x00000000002050fc       0x34 contiki-cc2538dk.a(nbr-table.o)
                0x00000000002050fc                nbr_table_head
 .text.nbr_table_add_lladdr
                0x0000000000205130      0x118 contiki-cc2538dk.a(nbr-table.o)
                0x0000000000205130                nbr_table_add_lladdr
 .text.nbr_table_remove
                0x0000000000205248       0x2c contiki-cc2538dk.a(nbr-table.o)
                0x0000000000205248                nbr_table_remove
 .text.nbr_table_lock
                0x0000000000205274       0x14 contiki-cc2538dk.a(nbr-table.o)
                0x0000000000205274                nbr_table_lock
 .text.nbr_table_unlock
                0x0000000000205288       0x14 contiki-cc2538dk.a(nbr-table.o)
                0x0000000000205288                nbr_table_unlock
 .text.packetbuf_compact
                0x000000000020529c       0x34 contiki-cc2538dk.a(packetbuf.o)
                0x000000000020529c                packetbuf_compact
 .text.packetbuf_copyto
                0x00000000002052d0       0x50 contiki-cc2538dk.a(packetbuf.o)
                0x00000000002052d0                packetbuf_copyto
 .text.packetbuf_hdrreduce
                0x0000000000205320       0x28 contiki-cc2538dk.a(packetbuf.o)
                0x0000000000205320                packetbuf_hdrreduce
 .text.packetbuf_set_datalen
                0x0000000000205348        0xc contiki-cc2538dk.a(packetbuf.o)
                0x0000000000205348                packetbuf_set_datalen
 .text.packetbuf_dataptr
                0x0000000000205354       0x14 contiki-cc2538dk.a(packetbuf.o)
                0x0000000000205354                packetbuf_dataptr
 .text.packetbuf_hdrptr
                0x0000000000205368       0x14 contiki-cc2538dk.a(packetbuf.o)
                0x0000000000205368                packetbuf_hdrptr
 .text.packetbuf_datalen
                0x000000000020537c        0xc contiki-cc2538dk.a(packetbuf.o)
                0x000000000020537c                packetbuf_datalen
 .text.packetbuf_hdrlen
                0x0000000000205388       0x1c contiki-cc2538dk.a(packetbuf.o)
                0x0000000000205388                packetbuf_hdrlen
 .text.packetbuf_totlen
                0x00000000002053a4       0x14 contiki-cc2538dk.a(packetbuf.o)
                0x00000000002053a4                packetbuf_totlen
 .text.packetbuf_hdralloc
                0x00000000002053b8       0x28 contiki-cc2538dk.a(packetbuf.o)
                0x00000000002053b8                packetbuf_hdralloc
 .text.packetbuf_attr_clear
                0x00000000002053e0       0x34 contiki-cc2538dk.a(packetbuf.o)
                0x00000000002053e0                packetbuf_attr_clear
 .text.packetbuf_clear
                0x0000000000205414       0x30 contiki-cc2538dk.a(packetbuf.o)
                0x0000000000205414                packetbuf_clear
 .text.packetbuf_copyfrom
                0x0000000000205444       0x2c contiki-cc2538dk.a(packetbuf.o)
                0x0000000000205444                packetbuf_copyfrom
 .text.packetbuf_attr_copyto
                0x0000000000205470       0x34 contiki-cc2538dk.a(packetbuf.o)
                0x0000000000205470                packetbuf_attr_copyto
 .text.packetbuf_attr_copyfrom
                0x00000000002054a4       0x34 contiki-cc2538dk.a(packetbuf.o)
                0x00000000002054a4                packetbuf_attr_copyfrom
 .text.packetbuf_set_attr
                0x00000000002054d8       0x10 contiki-cc2538dk.a(packetbuf.o)
                0x00000000002054d8                packetbuf_set_attr
 .text.packetbuf_attr
                0x00000000002054e8        0xc contiki-cc2538dk.a(packetbuf.o)
                0x00000000002054e8                packetbuf_attr
 .text.packetbuf_set_addr
                0x00000000002054f4       0x18 contiki-cc2538dk.a(packetbuf.o)
                0x00000000002054f4                packetbuf_set_addr
 .text.packetbuf_addr
                0x000000000020550c       0x10 contiki-cc2538dk.a(packetbuf.o)
                0x000000000020550c                packetbuf_addr
 .text.packetbuf_holds_broadcast
                0x000000000020551c       0x10 contiki-cc2538dk.a(packetbuf.o)
                0x000000000020551c                packetbuf_holds_broadcast
 .text.netstack_init
                0x000000000020552c       0x2c contiki-cc2538dk.a(netstack.o)
                0x000000000020552c                netstack_init
 .text.create_frame.isra.0
                0x0000000000205558      0x110 contiki-cc2538dk.a(framer-802154.o)
 .text.input_packet
                0x0000000000205668       0x10 contiki-cc2538dk.a(csma.o)
 .text.on       0x0000000000205678       0x10 contiki-cc2538dk.a(csma.o)
 .text.off      0x0000000000205688       0x10 contiki-cc2538dk.a(csma.o)
 .text.channel_check_interval
                0x0000000000205698       0x10 contiki-cc2538dk.a(csma.o)
 .text.transmit_packet_list
                0x00000000002056a8       0x24 contiki-cc2538dk.a(csma.o)
 .text.send_packet
                0x00000000002056cc      0x148 contiki-cc2538dk.a(csma.o)
 .text.init     0x0000000000205814       0x24 contiki-cc2538dk.a(csma.o)
 .text.free_packet
                0x0000000000205838       0x90 contiki-cc2538dk.a(csma.o)
 .text.packet_sent
                0x00000000002058c8       0xf8 contiki-cc2538dk.a(csma.o)
 .text.frame802154_parse
                0x00000000002059c0      0x114 contiki-cc2538dk.a(frame802154.o)
                0x00000000002059c0                frame802154_parse
 .text.framer_canonical_create_and_secure
                0x0000000000205ad4       0x30 contiki-cc2538dk.a(framer.o)
                0x0000000000205ad4                framer_canonical_create_and_secure
 .text.init     0x0000000000205b04       0x40 contiki-cc2538dk.a(contikimac.o)
 .text.on       0x0000000000205b44       0x28 contiki-cc2538dk.a(contikimac.o)
 .text.off      0x0000000000205b6c       0x34 contiki-cc2538dk.a(contikimac.o)
 .text.recv_burst_off
                0x0000000000205ba0       0x14 contiki-cc2538dk.a(contikimac.o)
 .text.powercycle_turn_radio_off
                0x0000000000205bb4       0x1c contiki-cc2538dk.a(contikimac.o)
 .text.turn_off
                0x0000000000205bd0       0x34 contiki-cc2538dk.a(contikimac.o)
 .text.turn_on  0x0000000000205c04       0x40 contiki-cc2538dk.a(contikimac.o)
 .text.schedule_powercycle_fixed
                0x0000000000205c44       0x38 contiki-cc2538dk.a(contikimac.o)
 .text.input_packet
                0x0000000000205c7c       0x9c contiki-cc2538dk.a(contikimac.o)
 .text.send_packet.isra.7
                0x0000000000205d18      0x204 contiki-cc2538dk.a(contikimac.o)
 .text.qsend_list
                0x0000000000205f1c       0xc0 contiki-cc2538dk.a(contikimac.o)
 .text.powercycle
                0x0000000000205fdc      0x200 contiki-cc2538dk.a(contikimac.o)
 .text.input    0x00000000002061dc       0x10 contiki-cc2538dk.a(nullsec.o)
 .text.send     0x00000000002061ec       0x20 contiki-cc2538dk.a(nullsec.o)
 .text.stimer_expired
                0x000000000020620c       0x20 contiki-cc2538dk.a(stimer.o)
                0x000000000020620c                stimer_expired
 .text.echo_reply_input
                0x000000000020622c       0xd8 contiki-cc2538dk.a(uip-icmp6.o)
 .text.echo_request_input
                0x0000000000206304      0x100 contiki-cc2538dk.a(uip-icmp6.o)
 .text.uip_icmp6_input
                0x0000000000206404       0x38 contiki-cc2538dk.a(uip-icmp6.o)
                0x0000000000206404                uip_icmp6_input
 .text.uip_icmp6_register_input_handler
                0x000000000020643c        0xc contiki-cc2538dk.a(uip-icmp6.o)
                0x000000000020643c                uip_icmp6_register_input_handler
 .text.uip_icmp6_error_output
                0x0000000000206448      0x148 contiki-cc2538dk.a(uip-icmp6.o)
                0x0000000000206448                uip_icmp6_error_output
 .text.uip_icmp6_send
                0x0000000000206590       0x90 contiki-cc2538dk.a(uip-icmp6.o)
                0x0000000000206590                uip_icmp6_send
 .text.uip_icmp6_init
                0x0000000000206620       0x1c contiki-cc2538dk.a(uip-icmp6.o)
                0x0000000000206620                uip_icmp6_init
 .text.uip_ds6_prefix_add
                0x000000000020663c       0x60 contiki-cc2538dk.a(uip-ds6.o)
                0x000000000020663c                uip_ds6_prefix_add
 .text.uip_ds6_is_addr_onlink
                0x000000000020669c       0x40 contiki-cc2538dk.a(uip-ds6.o)
                0x000000000020669c                uip_ds6_is_addr_onlink
 .text.uip_ds6_addr_lookup
                0x00000000002066dc       0x2c contiki-cc2538dk.a(uip-ds6.o)
                0x00000000002066dc                uip_ds6_addr_lookup
 .text.uip_ds6_get_link_local
                0x0000000000206708       0x40 contiki-cc2538dk.a(uip-ds6.o)
                0x0000000000206708                uip_ds6_get_link_local
 .text.uip_ds6_maddr_add
                0x0000000000206748       0x4c contiki-cc2538dk.a(uip-ds6.o)
                0x0000000000206748                uip_ds6_maddr_add
 .text.uip_ds6_addr_add
                0x0000000000206794       0x98 contiki-cc2538dk.a(uip-ds6.o)
                0x0000000000206794                uip_ds6_addr_add
 .text.uip_ds6_maddr_lookup
                0x000000000020682c       0x2c contiki-cc2538dk.a(uip-ds6.o)
                0x000000000020682c                uip_ds6_maddr_lookup
 .text.uip_ds6_addr_rm
                0x0000000000206858       0x44 contiki-cc2538dk.a(uip-ds6.o)
                0x0000000000206858                uip_ds6_addr_rm
 .text.uip_ds6_periodic
                0x000000000020689c       0x50 contiki-cc2538dk.a(uip-ds6.o)
                0x000000000020689c                uip_ds6_periodic
 .text.uip_ds6_select_src
                0x00000000002068ec       0x98 contiki-cc2538dk.a(uip-ds6.o)
                0x00000000002068ec                uip_ds6_select_src
 .text.uip_ds6_compute_reachable_time
                0x0000000000206984       0x28 contiki-cc2538dk.a(uip-ds6.o)
                0x0000000000206984                uip_ds6_compute_reachable_time
 .text.uip_ds6_init
                0x00000000002069ac       0xe0 contiki-cc2538dk.a(uip-ds6.o)
                0x00000000002069ac                uip_ds6_init
 .text.call_route_callback
                0x0000000000206a8c       0x48 contiki-cc2538dk.a(uip-ds6-route.o)
 .text.uip_ds6_route_init
                0x0000000000206ad4       0x48 contiki-cc2538dk.a(uip-ds6-route.o)
                0x0000000000206ad4                uip_ds6_route_init
 .text.uip_ds6_route_nexthop
                0x0000000000206b1c       0x1c contiki-cc2538dk.a(uip-ds6-route.o)
                0x0000000000206b1c                uip_ds6_route_nexthop
 .text.uip_ds6_route_head
                0x0000000000206b38        0xc contiki-cc2538dk.a(uip-ds6-route.o)
                0x0000000000206b38                uip_ds6_route_head
 .text.uip_ds6_route_lookup
                0x0000000000206b44       0x64 contiki-cc2538dk.a(uip-ds6-route.o)
                0x0000000000206b44                uip_ds6_route_lookup
 .text.uip_ds6_route_rm
                0x0000000000206ba8       0x9c contiki-cc2538dk.a(uip-ds6-route.o)
                0x0000000000206ba8                uip_ds6_route_rm
 .text.rm_routelist
                0x0000000000206c44       0x2c contiki-cc2538dk.a(uip-ds6-route.o)
 .text.uip_ds6_route_add
                0x0000000000206c70      0x108 contiki-cc2538dk.a(uip-ds6-route.o)
                0x0000000000206c70                uip_ds6_route_add
 .text.uip_ds6_defrt_rm
                0x0000000000206d78       0x44 contiki-cc2538dk.a(uip-ds6-route.o)
                0x0000000000206d78                uip_ds6_defrt_rm
 .text.uip_ds6_defrt_lookup
                0x0000000000206dbc       0x2c contiki-cc2538dk.a(uip-ds6-route.o)
                0x0000000000206dbc                uip_ds6_defrt_lookup
 .text.uip_ds6_defrt_add
                0x0000000000206de8       0x64 contiki-cc2538dk.a(uip-ds6-route.o)
                0x0000000000206de8                uip_ds6_defrt_add
 .text.uip_ds6_defrt_choose
                0x0000000000206e4c       0x30 contiki-cc2538dk.a(uip-ds6-route.o)
                0x0000000000206e4c                uip_ds6_defrt_choose
 .text.uip_ds6_defrt_periodic
                0x0000000000206e7c       0x30 contiki-cc2538dk.a(uip-ds6-route.o)
                0x0000000000206e7c                uip_ds6_defrt_periodic
 .text.uip_ds6_nbr_rm
                0x0000000000206eac       0x20 contiki-cc2538dk.a(uip-ds6-nbr.o)
                0x0000000000206eac                uip_ds6_nbr_rm
 .text.uip_ds6_neighbors_init
                0x0000000000206ecc       0x14 contiki-cc2538dk.a(uip-ds6-nbr.o)
                0x0000000000206ecc                uip_ds6_neighbors_init
 .text.uip_ds6_nbr_add
                0x0000000000206ee0       0x60 contiki-cc2538dk.a(uip-ds6-nbr.o)
                0x0000000000206ee0                uip_ds6_nbr_add
 .text.uip_ds6_nbr_get_ll
                0x0000000000206f40       0x10 contiki-cc2538dk.a(uip-ds6-nbr.o)
                0x0000000000206f40                uip_ds6_nbr_get_ll
 .text.uip_ds6_nbr_lookup
                0x0000000000206f50       0x38 contiki-cc2538dk.a(uip-ds6-nbr.o)
                0x0000000000206f50                uip_ds6_nbr_lookup
 .text.uip_ds6_nbr_ll_lookup
                0x0000000000206f88       0x10 contiki-cc2538dk.a(uip-ds6-nbr.o)
                0x0000000000206f88                uip_ds6_nbr_ll_lookup
 .text.uip_ds6_link_neighbor_callback
                0x0000000000206f98       0x2c contiki-cc2538dk.a(uip-ds6-nbr.o)
                0x0000000000206f98                uip_ds6_link_neighbor_callback
 .text.uip_ds6_neighbor_periodic
                0x0000000000206fc4      0x110 contiki-cc2538dk.a(uip-ds6-nbr.o)
                0x0000000000206fc4                uip_ds6_neighbor_periodic
 .text.uip_debug_ipaddr_print
                0x00000000002070d4       0x64 contiki-cc2538dk.a(uip-debug.o)
                0x00000000002070d4                uip_debug_ipaddr_print
 .text.uip_udp_packet_send
                0x0000000000207138       0x38 contiki-cc2538dk.a(uip-udp-packet.)
                0x0000000000207138                uip_udp_packet_send
 .text.dao_ack_input
                0x0000000000207170        0xc contiki-cc2538dk.a(rpl-icmp6.o)
 .text.dio_input
                0x000000000020717c      0x278 contiki-cc2538dk.a(rpl-icmp6.o)
 .text.dis_output
                0x00000000002073f4       0x54 contiki-cc2538dk.a(rpl-icmp6.o)
                0x00000000002073f4                dis_output
 .text.dio_output
                0x0000000000207448      0x20c contiki-cc2538dk.a(rpl-icmp6.o)
                0x0000000000207448                dio_output
 .text.dis_input
                0x0000000000207654       0x34 contiki-cc2538dk.a(rpl-icmp6.o)
 .text.dao_output_target
                0x0000000000207688       0xe4 contiki-cc2538dk.a(rpl-icmp6.o)
                0x0000000000207688                dao_output_target
 .text.dao_output
                0x000000000020776c       0x60 contiki-cc2538dk.a(rpl-icmp6.o)
                0x000000000020776c                dao_output
 .text.dao_ack_output
                0x00000000002077cc       0x34 contiki-cc2538dk.a(rpl-icmp6.o)
                0x00000000002077cc                dao_ack_output
 .text.dao_input
                0x0000000000207800      0x224 contiki-cc2538dk.a(rpl-icmp6.o)
 .text.rpl_icmp6_register_handlers
                0x0000000000207a24       0x30 contiki-cc2538dk.a(rpl-icmp6.o)
                0x0000000000207a24                rpl_icmp6_register_handlers
 .text.mac_sequence_is_duplicate
                0x0000000000207a54       0x38 contiki-cc2538dk.a(mac-sequence.o)
                0x0000000000207a54                mac_sequence_is_duplicate
 .text.mac_sequence_register_seqno
                0x0000000000207a8c       0x68 contiki-cc2538dk.a(mac-sequence.o)
                0x0000000000207a8c                mac_sequence_register_seqno
 .text          0x0000000000207af4       0x2c /usr/lib/gcc/arm-none-eabi/4.8/armv7-m/libgcc.a(_aeabi_uldivmod.o)
                0x0000000000207af4                __aeabi_uldivmod
 .text          0x0000000000207b20       0x60 /usr/lib/gcc/arm-none-eabi/4.8/armv7-m/libgcc.a(bpabi.o)
                0x0000000000207b20                __gnu_ldivmod_helper
                0x0000000000207b50                __gnu_uldivmod_helper
 .text          0x0000000000207b80        0x4 /usr/lib/gcc/arm-none-eabi/4.8/armv7-m/libgcc.a(_dvmd_tls.o)
                0x0000000000207b80                __aeabi_ldiv0
                0x0000000000207b80                __aeabi_idiv0
 .text          0x0000000000207b84      0x2a0 /usr/lib/gcc/arm-none-eabi/4.8/armv7-m/libgcc.a(_divdi3.o)
                0x0000000000207b84                __divdi3
 .text          0x0000000000207e24      0x290 /usr/lib/gcc/arm-none-eabi/4.8/armv7-m/libgcc.a(_udivdi3.o)
                0x0000000000207e24                __udivdi3
 .text.memcmp   0x00000000002080b4       0x68 /usr/lib/gcc/arm-none-eabi/4.8/../../../arm-none-eabi/lib/armv7-m/libc.a(lib_a-memcmp.o)
                0x00000000002080b4                memcmp
 .text          0x000000000020811c       0xec /usr/lib/gcc/arm-none-eabi/4.8/../../../arm-none-eabi/lib/armv7-m/libc.a(lib_a-memcpy.o)
                0x000000000020811c                memcpy
 .text.memmove  0x0000000000208208       0xcc /usr/lib/gcc/arm-none-eabi/4.8/../../../arm-none-eabi/lib/armv7-m/libc.a(lib_a-memmove.o)
                0x0000000000208208                memmove
 .text.memset   0x00000000002082d4       0x94 /usr/lib/gcc/arm-none-eabi/4.8/../../../arm-none-eabi/lib/armv7-m/libc.a(lib_a-memset.o)
                0x00000000002082d4                memset
 .text.default_handler
                0x0000000000208368        0x2 obj_cc2538dk/startup-gcc.o
                0x0000000000208368                default_handler
                0x0000000000208368                usb_isr
 .text.nmi_handler
                0x000000000020836a        0x6 obj_cc2538dk/startup-gcc.o
                0x000000000020836a                nmi_handler
 .text.fade     0x0000000000208370       0x54 contiki-cc2538dk.a(contiki-main.o)
 .text.config   0x00000000002083c4       0x40 contiki-cc2538dk.a(button-sensor.o)
 .text.status   0x0000000000208404        0x4 contiki-cc2538dk.a(als-sensor.o)
 .text.clock_wait
                0x0000000000208408       0x16 contiki-cc2538dk.a(clock.o)
                0x0000000000208408                clock_wait
 .text.clock_isr
                0x000000000020841e        0x4 contiki-cc2538dk.a(clock.o)
                0x000000000020841e                clock_isr
 .text.rtimer_arch_init
                0x0000000000208422        0x2 contiki-cc2538dk.a(rtimer-arch.o)
                0x0000000000208422                rtimer_arch_init
 .text.uart0_isr
                0x0000000000208424        0x6 contiki-cc2538dk.a(uart.o)
                0x0000000000208424                uart0_isr
 .text.uart1_isr
                0x000000000020842a        0x6 contiki-cc2538dk.a(uart.o)
                0x000000000020842a                uart1_isr
 .text.cpu_cpsie
                0x0000000000208430        0x8 contiki-cc2538dk.a(cpu.o)
                0x0000000000208430                cpu_cpsie
 .text.cpu_cpsid
                0x0000000000208438        0x8 contiki-cc2538dk.a(cpu.o)
                0x0000000000208438                cpu_cpsid
 .text.gpio_port_a_isr
                0x0000000000208440        0x6 contiki-cc2538dk.a(gpio.o)
                0x0000000000208440                gpio_port_a_isr
 .text.gpio_port_b_isr
                0x0000000000208446        0x6 contiki-cc2538dk.a(gpio.o)
                0x0000000000208446                gpio_port_b_isr
 .text.gpio_port_c_isr
                0x000000000020844c        0x6 contiki-cc2538dk.a(gpio.o)
                0x000000000020844c                gpio_port_c_isr
 .text.gpio_port_d_isr
                0x0000000000208452        0x6 contiki-cc2538dk.a(gpio.o)
                0x0000000000208452                gpio_port_d_isr
 .text.send     0x0000000000208458       0x12 contiki-cc2538dk.a(cc2538-rf.o)
 .text.putchar  0x000000000020846a       0x10 contiki-cc2538dk.a(dbg.o)
                0x000000000020846a                putchar
 .text.dbg_send_bytes
                0x000000000020847a       0x22 contiki-cc2538dk.a(dbg.o)
                0x000000000020847a                dbg_send_bytes
 .text.puts     0x000000000020849c       0x20 contiki-cc2538dk.a(dbg.o)
                0x000000000020849c                puts
 .text.configure
                0x00000000002084bc        0x4 contiki-cc2538dk.a(cc2538-temp-sen)
 .text.status   0x00000000002084c0        0x4 contiki-cc2538dk.a(cc2538-temp-sen)
 .text.value    0x00000000002084c4       0x34 contiki-cc2538dk.a(cc2538-temp-sen)
 .text.configure
                0x00000000002084f8        0x4 contiki-cc2538dk.a(vdd3-sensor.o)
 .text.status   0x00000000002084fc        0x4 contiki-cc2538dk.a(vdd3-sensor.o)
 .text.value    0x0000000000208500       0x2a contiki-cc2538dk.a(vdd3-sensor.o)
 .text.write_str
                0x000000000020852a       0x10 contiki-cc2538dk.a(dbg-printf.o)
 .text.autostart_start
                0x000000000020853a       0x14 contiki-cc2538dk.a(autostart.o)
                0x000000000020853a                autostart_start
 .text.energest_init
                0x000000000020854e        0x2 contiki-cc2538dk.a(energest.o)
                0x000000000020854e                energest_init
 .text.etimer_set
                0x0000000000208550       0x12 contiki-cc2538dk.a(etimer.o)
                0x0000000000208550                etimer_set
 .text.etimer_reset
                0x0000000000208562       0x12 contiki-cc2538dk.a(etimer.o)
                0x0000000000208562                etimer_reset
 .text.etimer_expired
                0x0000000000208574        0xc contiki-cc2538dk.a(etimer.o)
                0x0000000000208574                etimer_expired
 .text.etimer_expiration_time
                0x0000000000208580        0x6 contiki-cc2538dk.a(etimer.o)
                0x0000000000208580                etimer_expiration_time
 .text.call_process
                0x0000000000208586        0xc contiki-cc2538dk.a(process.o)
 .text.rtimer_init
                0x0000000000208592        0x4 contiki-cc2538dk.a(rtimer.o)
                0x0000000000208592                rtimer_init
 .text.timer_set
                0x0000000000208596        0xe contiki-cc2538dk.a(timer.o)
                0x0000000000208596                timer_set
 .text.timer_reset
                0x00000000002085a4        0xa contiki-cc2538dk.a(timer.o)
                0x00000000002085a4                timer_reset
 .text.timer_expired
                0x00000000002085ae       0x1c contiki-cc2538dk.a(timer.o)
                0x00000000002085ae                timer_expired
 .text.timer_remaining
                0x00000000002085ca       0x10 contiki-cc2538dk.a(timer.o)
                0x00000000002085ca                timer_remaining
 .text.list_init
                0x00000000002085da        0x6 contiki-cc2538dk.a(list.o)
                0x00000000002085da                list_init
 .text.list_head
                0x00000000002085e0        0x4 contiki-cc2538dk.a(list.o)
                0x00000000002085e0                list_head
 .text.list_tail
                0x00000000002085e4        0xe contiki-cc2538dk.a(list.o)
                0x00000000002085e4                list_tail
 .text.list_remove
                0x00000000002085f2       0x28 contiki-cc2538dk.a(list.o)
                0x00000000002085f2                list_remove
 .text.list_add
                0x000000000020861a       0x1e contiki-cc2538dk.a(list.o)
                0x000000000020861a                list_add
 .text.list_push
                0x0000000000208638       0x12 contiki-cc2538dk.a(list.o)
                0x0000000000208638                list_push
 .text.list_length
                0x000000000020864a        0xe contiki-cc2538dk.a(list.o)
                0x000000000020864a                list_length
 .text.list_item_next
                0x0000000000208658        0x6 contiki-cc2538dk.a(list.o)
                0x0000000000208658                list_item_next
 .text.ringbuf_init
                0x000000000020865e        0xe contiki-cc2538dk.a(ringbuf.o)
                0x000000000020865e                ringbuf_init
 .text.ringbuf_put
                0x000000000020866c       0x26 contiki-cc2538dk.a(ringbuf.o)
                0x000000000020866c                ringbuf_put
 .text.ringbuf_get
                0x0000000000208692       0x20 contiki-cc2538dk.a(ringbuf.o)
                0x0000000000208692                ringbuf_get
 .text.chksum   0x00000000002086b2       0x38 contiki-cc2538dk.a(uip6.o)
 .text.uip_icmp6chksum
                0x00000000002086ea        0x6 contiki-cc2538dk.a(uip6.o)
                0x00000000002086ea                uip_icmp6chksum
 .text.uip_udpchksum
                0x00000000002086f0        0x6 contiki-cc2538dk.a(uip6.o)
                0x00000000002086f0                uip_udpchksum
 .text.uip_htonl
                0x00000000002086f6       0x14 contiki-cc2538dk.a(uip6.o)
                0x00000000002086f6                uip_htonl
 .text.simple_udp_sendto
                0x000000000020870a       0x1a contiki-cc2538dk.a(simple-udp.o)
                0x000000000020870a                simple_udp_sendto
 .text.lollipop_greater_than
                0x0000000000208724       0x34 contiki-cc2538dk.a(rpl-dag.o)
 .text.check_prefix
                0x0000000000208758       0x58 contiki-cc2538dk.a(rpl-dag.o)
 .text.rpl_set_prefix
                0x00000000002087b0       0x6e contiki-cc2538dk.a(rpl-dag.o)
                0x00000000002087b0                rpl_set_prefix
 .text.rpl_set_default_route
                0x000000000020881e       0x42 contiki-cc2538dk.a(rpl-dag.o)
                0x000000000020881e                rpl_set_default_route
 .text.rpl_find_parent
                0x0000000000208860       0x16 contiki-cc2538dk.a(rpl-dag.o)
                0x0000000000208860                rpl_find_parent
 .text.rpl_find_parent_any_dag
                0x0000000000208876       0x24 contiki-cc2538dk.a(rpl-dag.o)
                0x0000000000208876                rpl_find_parent_any_dag
 .text.rpl_select_dag
                0x000000000020889a      0x152 contiki-cc2538dk.a(rpl-dag.o)
                0x000000000020889a                rpl_select_dag
 .text.rpl_nullify_parent
                0x00000000002089ec       0x48 contiki-cc2538dk.a(rpl-dag.o)
                0x00000000002089ec                rpl_nullify_parent
 .text.nbr_callback
                0x0000000000208a34        0x4 contiki-cc2538dk.a(rpl-dag.o)
 .text.rpl_move_parent
                0x0000000000208a38       0x48 contiki-cc2538dk.a(rpl-dag.o)
                0x0000000000208a38                rpl_move_parent
 .text.rpl_repair_root
                0x0000000000208a80       0x48 contiki-cc2538dk.a(rpl-dag.o)
                0x0000000000208a80                rpl_repair_root
 .text.rpl_alloc_dag
                0x0000000000208ac8       0x48 contiki-cc2538dk.a(rpl-dag.o)
                0x0000000000208ac8                rpl_alloc_dag
 .text.rpl_process_parent_event
                0x0000000000208b10       0x60 contiki-cc2538dk.a(rpl-dag.o)
                0x0000000000208b10                rpl_process_parent_event
 .text.rpl_add_dag
                0x0000000000208b70      0x100 contiki-cc2538dk.a(rpl-dag.o)
                0x0000000000208b70                rpl_add_dag
 .text.rpl_process_dio
                0x0000000000208c70      0x29e contiki-cc2538dk.a(rpl-dag.o)
                0x0000000000208c70                rpl_process_dio
 .text.rpl_reset_dio_timer
                0x0000000000208f0e       0x1c contiki-cc2538dk.a(rpl-timers.o)
                0x0000000000208f0e                rpl_reset_dio_timer
 .text.rpl_schedule_dao
                0x0000000000208f2a        0x8 contiki-cc2538dk.a(rpl-timers.o)
                0x0000000000208f2a                rpl_schedule_dao
 .text.rpl_remove_routes
                0x0000000000208f32       0x1e contiki-cc2538dk.a(rpl.o)
                0x0000000000208f32                rpl_remove_routes
 .text.rpl_remove_routes_by_nexthop
                0x0000000000208f50       0x36 contiki-cc2538dk.a(rpl.o)
                0x0000000000208f50                rpl_remove_routes_by_nexthop
 .text.rpl_add_route
                0x0000000000208f86       0x28 contiki-cc2538dk.a(rpl.o)
                0x0000000000208f86                rpl_add_route
 .text.reset    0x0000000000208fae        0x2 contiki-cc2538dk.a(rpl-mrhof.o)
 .text.update_metric_container
                0x0000000000208fb0        0x6 contiki-cc2538dk.a(rpl-mrhof.o)
 .text.calculate_rank
                0x0000000000208fb6       0x34 contiki-cc2538dk.a(rpl-mrhof.o)
 .text.neighbor_link_callback
                0x0000000000208fea       0x44 contiki-cc2538dk.a(rpl-mrhof.o)
 .text.best_dag
                0x000000000020902e       0x2a contiki-cc2538dk.a(rpl-mrhof.o)
 .text.best_parent
                0x0000000000209058       0x58 contiki-cc2538dk.a(rpl-mrhof.o)
 .text.queuebuf_update_attr_from_packetbuf
                0x00000000002090b0        0xc contiki-cc2538dk.a(queuebuf.o)
                0x00000000002090b0                queuebuf_update_attr_from_packetbuf
 .text.queuebuf_update_from_packetbuf
                0x00000000002090bc       0x1c contiki-cc2538dk.a(queuebuf.o)
                0x00000000002090bc                queuebuf_update_from_packetbuf
 .text.queuebuf_attr
                0x00000000002090d8        0xc contiki-cc2538dk.a(queuebuf.o)
                0x00000000002090d8                queuebuf_attr
 .text.nbr_set_bit
                0x00000000002090e4       0x34 contiki-cc2538dk.a(nbr-table.o)
 .text.item_from_key
                0x0000000000209118       0x22 contiki-cc2538dk.a(nbr-table.o)
 .text.nbr_table_next
                0x000000000020913a       0x2e contiki-cc2538dk.a(nbr-table.o)
                0x000000000020913a                nbr_table_next
 .text.nbr_table_get_from_lladdr
                0x0000000000209168       0x32 contiki-cc2538dk.a(nbr-table.o)
                0x0000000000209168                nbr_table_get_from_lladdr
 .text.nbr_table_get_lladdr
                0x000000000020919a        0xc contiki-cc2538dk.a(nbr-table.o)
                0x000000000020919a                nbr_table_get_lladdr
 .text.linkaddr_copy
                0x00000000002091a6        0xa contiki-cc2538dk.a(linkaddr.o)
                0x00000000002091a6                linkaddr_copy
 .text.linkaddr_cmp
                0x00000000002091b0       0x12 contiki-cc2538dk.a(linkaddr.o)
                0x00000000002091b0                linkaddr_cmp
 .text.parse    0x00000000002091c2       0x92 contiki-cc2538dk.a(framer-802154.o)
 .text.create   0x0000000000209254        0x6 contiki-cc2538dk.a(framer-802154.o)
 .text.hdr_length
                0x000000000020925a        0x6 contiki-cc2538dk.a(framer-802154.o)
 .text.field_len
                0x0000000000209260       0x70 contiki-cc2538dk.a(frame802154.o)
 .text.frame802154_hdrlen
                0x00000000002092d0       0x2c contiki-cc2538dk.a(frame802154.o)
                0x00000000002092d0                frame802154_hdrlen
 .text.frame802154_create
                0x00000000002092fc       0xc2 contiki-cc2538dk.a(frame802154.o)
                0x00000000002092fc                frame802154_create
 .text.mac_call_sent_callback
                0x00000000002093be       0x10 contiki-cc2538dk.a(mac.o)
                0x00000000002093be                mac_call_sent_callback
 .text.duty_cycle
                0x00000000002093ce        0x4 contiki-cc2538dk.a(contikimac.o)
 .text.qsend_packet
                0x00000000002093d2       0x22 contiki-cc2538dk.a(contikimac.o)
 .text.bootstrap
                0x00000000002093f4        0x6 contiki-cc2538dk.a(nullsec.o)
 .text.on_frame_created
                0x00000000002093fa        0x4 contiki-cc2538dk.a(nullsec.o)
 .text.get_overhead
                0x00000000002093fe        0x4 contiki-cc2538dk.a(nullsec.o)
 .text.stimer_set
                0x0000000000209402        0xe contiki-cc2538dk.a(stimer.o)
                0x0000000000209402                stimer_set
 .text.memb_init
                0x0000000000209410       0x20 contiki-cc2538dk.a(memb.o)
                0x0000000000209410                memb_init
 .text.memb_alloc
                0x0000000000209430       0x28 contiki-cc2538dk.a(memb.o)
                0x0000000000209430                memb_alloc
 .text.memb_free
                0x0000000000209458       0x2c contiki-cc2538dk.a(memb.o)
                0x0000000000209458                memb_free
 .text.memb_inmemb
                0x0000000000209484       0x1c contiki-cc2538dk.a(memb.o)
                0x0000000000209484                memb_inmemb
 .text.memb_numfree
                0x00000000002094a0       0x1c contiki-cc2538dk.a(memb.o)
                0x00000000002094a0                memb_numfree
 .text.uip_ds6_list_loop
                0x00000000002094bc       0x4a contiki-cc2538dk.a(uip-ds6.o)
                0x00000000002094bc                uip_ds6_list_loop
 .text.uip_ds6_maddr_rm
                0x0000000000209506        0x8 contiki-cc2538dk.a(uip-ds6.o)
                0x0000000000209506                uip_ds6_maddr_rm
 .text.uip_ds6_set_addr_iid
                0x000000000020950e       0x12 contiki-cc2538dk.a(uip-ds6.o)
                0x000000000020950e                uip_ds6_set_addr_iid
 .text.get_match_length
                0x0000000000209520       0x36 contiki-cc2538dk.a(uip-ds6.o)
                0x0000000000209520                get_match_length
 .text.uip_ds6_route_next
                0x0000000000209556        0x8 contiki-cc2538dk.a(uip-ds6-route.o)
                0x0000000000209556                uip_ds6_route_next
 .text.rm_routelist_callback
                0x000000000020955e        0x4 contiki-cc2538dk.a(uip-ds6-route.o)
 .text.uip_ds6_nbr_ipaddr_from_lladdr
                0x0000000000209562        0x4 contiki-cc2538dk.a(uip-ds6-nbr.o)
                0x0000000000209562                uip_ds6_nbr_ipaddr_from_lladdr
 .text.uip_ds6_nbr_lladdr_from_ipaddr
                0x0000000000209566       0x12 contiki-cc2538dk.a(uip-ds6-nbr.o)
                0x0000000000209566                uip_ds6_nbr_lladdr_from_ipaddr
 .text.uip_udp_packet_sendto
                0x0000000000209578       0x56 contiki-cc2538dk.a(uip-udp-packet.)
                0x0000000000209578                uip_udp_packet_sendto
 .text.get32    0x00000000002095ce       0x18 contiki-cc2538dk.a(rpl-icmp6.o)
 .text.set32    0x00000000002095e6       0x12 contiki-cc2538dk.a(rpl-icmp6.o)
 .text.get16    0x00000000002095f8        0xc contiki-cc2538dk.a(rpl-icmp6.o)
 .text.set16    0x0000000000209604        0xa contiki-cc2538dk.a(rpl-icmp6.o)
 *(SORT(.rodata*))
 *fill*         0x000000000020960e        0x2 00000000
 .rodata.autostart_processes
                0x0000000000209610        0x8 dummysensor.co
                0x0000000000209610                autostart_processes
 .rodata.button_select_sensor
                0x0000000000209618       0x10 contiki-cc2538dk.a(button-sensor.o)
                0x0000000000209618                button_select_sensor
 .rodata.button_up_sensor
                0x0000000000209628       0x10 contiki-cc2538dk.a(button-sensor.o)
                0x0000000000209628                button_up_sensor
 .rodata.button_left_sensor
                0x0000000000209638       0x10 contiki-cc2538dk.a(button-sensor.o)
                0x0000000000209638                button_left_sensor
 .rodata.button_right_sensor
                0x0000000000209648       0x10 contiki-cc2538dk.a(button-sensor.o)
                0x0000000000209648                button_right_sensor
 .rodata.button_down_sensor
                0x0000000000209658       0x10 contiki-cc2538dk.a(button-sensor.o)
                0x0000000000209658                button_down_sensor
 .rodata.als_sensor
                0x0000000000209668       0x10 contiki-cc2538dk.a(als-sensor.o)
                0x0000000000209668                als_sensor
 .rodata.uart_regs
                0x0000000000209678       0x58 contiki-cc2538dk.a(uart.o)
 .rodata.cc2538_rf_driver
                0x00000000002096d0       0x38 contiki-cc2538dk.a(cc2538-rf.o)
                0x00000000002096d0                cc2538_rf_driver
 .rodata.output_power
                0x0000000000209708       0x70 contiki-cc2538dk.a(cc2538-rf.o)
 .rodata.cc2538_temp_sensor
                0x0000000000209778       0x10 contiki-cc2538dk.a(cc2538-temp-sen)
                0x0000000000209778                cc2538_temp_sensor
 .rodata.vdd3_sensor
                0x0000000000209788       0x10 contiki-cc2538dk.a(vdd3-sensor.o)
                0x0000000000209788                vdd3_sensor
 .rodata.sicslowpan_driver
                0x0000000000209798        0xc contiki-cc2538dk.a(sicslowpan.o)
                0x0000000000209798                sicslowpan_driver
 .rodata.framer_802154
                0x00000000002097a4       0x10 contiki-cc2538dk.a(framer-802154.o)
                0x00000000002097a4                framer_802154
 .rodata.csma_driver
                0x00000000002097b4       0x1c contiki-cc2538dk.a(csma.o)
                0x00000000002097b4                csma_driver
 .rodata.contikimac_driver
                0x00000000002097d0       0x20 contiki-cc2538dk.a(contikimac.o)
                0x00000000002097d0                contikimac_driver
 .rodata.nullsec_driver
                0x00000000002097f0       0x18 contiki-cc2538dk.a(nullsec.o)
                0x00000000002097f0                nullsec_driver
 .rodata.str1.1
                0x0000000000209808       0xaa dummysensor.co
 .rodata.str1.1
                0x00000000002098b2       0x71 contiki-cc2538dk.a(contiki-main.o)
 .rodata.str1.1
                0x0000000000209923        0x8 contiki-cc2538dk.a(sensors.o)
 .rodata.str1.1
                0x000000000020992b        0x7 contiki-cc2538dk.a(button-sensor.o)
 .rodata.str1.1
                0x0000000000209932        0x4 contiki-cc2538dk.a(als-sensor.o)
 .rodata.str1.1
                0x0000000000209936       0x11 contiki-cc2538dk.a(cc2538-rf.o)
 .rodata.str1.1
                0x0000000000209947       0x14 contiki-cc2538dk.a(cc2538-temp-sen)
 .rodata.str1.1
                0x000000000020995b        0x5 contiki-cc2538dk.a(vdd3-sensor.o)
 .rodata.str1.1
                0x0000000000209960       0x35 contiki-cc2538dk.a(strformat.o)
                                         0x37 (size before relaxing)
 .rodata.buffer.4135
                0x0000000000209995       0x10 contiki-cc2538dk.a(strformat.o)
 .rodata.buffer.4144
                0x00000000002099a5       0x10 contiki-cc2538dk.a(strformat.o)
 .rodata.str1.1
                0x00000000002099b5        0xc contiki-cc2538dk.a(etimer.o)
 .rodata.str1.1
                0x00000000002099c1        0xf contiki-cc2538dk.a(ctimer.o)
 .rodata.str1.1
                0x00000000002099d0        0xe contiki-cc2538dk.a(serial-line.o)
 .rodata        0x00000000002099de        0x2 contiki-cc2538dk.a(sicslowpan.o)
 .rodata.ttl_values
                0x00000000002099e0        0x4 contiki-cc2538dk.a(sicslowpan.o)
 .rodata.unc_llconf
                0x00000000002099e4        0x4 contiki-cc2538dk.a(sicslowpan.o)
                0x00000000002099e4                unc_llconf
 .rodata.llprefix
                0x00000000002099e8        0x2 contiki-cc2538dk.a(sicslowpan.o)
                0x00000000002099e8                llprefix
 .rodata.unc_mxconf
                0x00000000002099ea        0x4 contiki-cc2538dk.a(sicslowpan.o)
                0x00000000002099ea                unc_mxconf
 .rodata.str1.1
                0x00000000002099ee        0xb contiki-cc2538dk.a(sicslowpan.o)
 .rodata.unc_ctxconf
                0x00000000002099f9        0x4 contiki-cc2538dk.a(sicslowpan.o)
                0x00000000002099f9                unc_ctxconf
 .rodata.str1.1
                0x00000000002099fd        0xd contiki-cc2538dk.a(tcpip.o)
 .rodata.linkaddr_null
                0x0000000000209a0a        0x8 contiki-cc2538dk.a(linkaddr.o)
                0x0000000000209a0a                linkaddr_null
 .rodata.str1.1
                0x0000000000209a12        0x5 contiki-cc2538dk.a(csma.o)
 .rodata.str1.1
                0x0000000000209a17        0xb contiki-cc2538dk.a(contikimac.o)
 .rodata.str1.1
                0x0000000000209a22        0x8 contiki-cc2538dk.a(nullsec.o)
 .rodata.str1.1
                0x0000000000209a2a       0x29 contiki-cc2538dk.a(uip-debug.o)
                0x0000000000209a53                _etext = .

.glue_7         0x0000000000209a54        0x0
 .glue_7        0x0000000000209a54        0x0 linker stubs

.glue_7t        0x0000000000209a54        0x0
 .glue_7t       0x0000000000209a54        0x0 linker stubs

.vfp11_veneer   0x0000000000209a54        0x0
 .vfp11_veneer  0x0000000000209a54        0x0 linker stubs

.v4_bx          0x0000000000209a54        0x0
 .v4_bx         0x0000000000209a54        0x0 linker stubs

.iplt           0x0000000000209a54        0x0
 .iplt          0x0000000000209a54        0x0 obj_cc2538dk/startup-gcc.o

.socdata        0x0000000020000000       0x40
 *(SORT(.udma_channel_control_table))
 .udma_channel_control_table
                0x0000000020000000       0x40 contiki-cc2538dk.a(udma.o)

.data           0x0000000020000040      0x1be load address 0x0000000000209a54
                0x0000000020000040                _data = .
 *(SORT(.data*))
 .data.dummysensor_process
                0x0000000020000040       0x10 dummysensor.co
                0x0000000020000040                dummysensor_process
 .data.sensors_process
                0x0000000020000050       0x10 contiki-cc2538dk.a(sensors.o)
                0x0000000020000050                sensors_process
 .data.sensors  0x0000000020000060       0x24 contiki-cc2538dk.a(smartrf-sensors)
                0x0000000020000060                sensors
 .data.cc2538_rf_process
                0x0000000020000084       0x10 contiki-cc2538dk.a(cc2538-rf.o)
                0x0000000020000084                cc2538_rf_process
 .data.ctxt     0x0000000020000094        0x8 contiki-cc2538dk.a(dbg-printf.o)
 .data.etimer_process
                0x000000002000009c       0x10 contiki-cc2538dk.a(etimer.o)
                0x000000002000009c                etimer_process
 .data.ctimer_process
                0x00000000200000ac       0x10 contiki-cc2538dk.a(ctimer.o)
                0x00000000200000ac                ctimer_process
 .data.serial_line_process
                0x00000000200000bc       0x10 contiki-cc2538dk.a(serial-line.o)
                0x00000000200000bc                serial_line_process
 .data.ns_input_handler
                0x00000000200000cc        0xc contiki-cc2538dk.a(uip-nd6.o)
 .data.na_input_handler
                0x00000000200000d8        0xc contiki-cc2538dk.a(uip-nd6.o)
 .data.tcpip_process
                0x00000000200000e4       0x10 contiki-cc2538dk.a(tcpip.o)
                0x00000000200000e4                tcpip_process
 .data.rpl_parents
                0x00000000200000f4        0x4 contiki-cc2538dk.a(rpl-dag.o)
                0x00000000200000f4                rpl_parents
 .data.rpl_parents_struct
                0x00000000200000f8       0x10 contiki-cc2538dk.a(rpl-dag.o)
 .data.rpl_mrhof
                0x0000000020000108       0x1c contiki-cc2538dk.a(rpl-mrhof.o)
                0x0000000020000108                rpl_mrhof
 .data.bufmem   0x0000000020000124        0xc contiki-cc2538dk.a(queuebuf.o)
 .data.buframmem
                0x0000000020000130        0xc contiki-cc2538dk.a(queuebuf.o)
 .data.neighbor_addr_mem
                0x000000002000013c        0xc contiki-cc2538dk.a(nbr-table.o)
 .data.metadata_memb
                0x0000000020000148        0xc contiki-cc2538dk.a(csma.o)
 .data.neighbor_memb
                0x0000000020000154        0xc contiki-cc2538dk.a(csma.o)
 .data.packet_memb
                0x0000000020000160        0xc contiki-cc2538dk.a(csma.o)
 .data.echo_request_handler
                0x000000002000016c        0xc contiki-cc2538dk.a(uip-icmp6.o)
 .data.echo_reply_handler
                0x0000000020000178        0xc contiki-cc2538dk.a(uip-icmp6.o)
 .data.defaultroutermemb
                0x0000000020000184        0xc contiki-cc2538dk.a(uip-ds6-route.o)
 .data.nbr_routes_struct
                0x0000000020000190       0x10 contiki-cc2538dk.a(uip-ds6-route.o)
 .data.routememb
                0x00000000200001a0        0xc contiki-cc2538dk.a(uip-ds6-route.o)
 .data.neighborroutememb
                0x00000000200001ac        0xc contiki-cc2538dk.a(uip-ds6-route.o)
 .data.ds6_neighbors
                0x00000000200001b8        0x4 contiki-cc2538dk.a(uip-ds6-nbr.o)
                0x00000000200001b8                ds6_neighbors
 .data.ds6_neighbors_struct
                0x00000000200001bc       0x10 contiki-cc2538dk.a(uip-ds6-nbr.o)
 .data.dao_ack_handler
                0x00000000200001cc        0xc contiki-cc2538dk.a(rpl-icmp6.o)
 .data.dis_handler
                0x00000000200001d8        0xc contiki-cc2538dk.a(rpl-icmp6.o)
 .data.dao_handler
                0x00000000200001e4        0xc contiki-cc2538dk.a(rpl-icmp6.o)
 .data.dio_handler
                0x00000000200001f0        0xc contiki-cc2538dk.a(rpl-icmp6.o)
 .data.rf_channel
                0x00000000200001fc        0x1 contiki-cc2538dk.a(cc2538-rf.o)
 .data.dao_sequence
                0x00000000200001fd        0x1 contiki-cc2538dk.a(rpl-icmp6.o)
                0x00000000200001fe                _edata = .
                0x0000000000209a54                _ldata = LOADADDR (.data)

.igot.plt       0x0000000020000200        0x0 load address 0x0000000000209c12
 .igot.plt      0x0000000020000200        0x0 obj_cc2538dk/startup-gcc.o

.ARM.exidx      0x0000000000209c14        0x8
 *(SORT(.ARM.exidx*))
 .ARM.exidx     0x0000000000209c14        0x8 /usr/lib/gcc/arm-none-eabi/4.8/armv7-m/libgcc.a(_divdi3.o)
 .ARM.exidx     0x0000000000209c1c        0x0 /usr/lib/gcc/arm-none-eabi/4.8/armv7-m/libgcc.a(_udivdi3.o)
                                          0x8 (size before relaxing)

.bss            0x0000000020000200     0x2693
                0x0000000020000200                _bss = .
 *(SORT(.bss*))
 .bss.rt_ticks_startup
                0x0000000020000200        0x8 contiki-cc2538dk.a(clock.o)
 .bss.rt_ticks_epoch
                0x0000000020000208        0x8 contiki-cc2538dk.a(clock.o)
 .bss.resetwd_timer
                0x0000000020000210       0x20 dummysensor.co
 .bss.payload_start.5773
                0x0000000020000230        0x4 dummysensor.co
 .bss.idle_timer
                0x0000000020000234       0x10 dummysensor.co
 .bss.payload_end.5774
                0x0000000020000244        0x4 dummysensor.co
 .bss.broadcast_connection
                0x0000000020000248       0x24 dummysensor.co
 .bss.payload_timer
                0x000000002000026c        0x8 dummysensor.co
 .bss.i.4713    0x0000000020000274        0x4 contiki-cc2538dk.a(sensors.o)
 .bss.events.4714
                0x0000000020000278        0x4 contiki-cc2538dk.a(sensors.o)
 .bss.debouncetimer
                0x000000002000027c        0x8 contiki-cc2538dk.a(button-sensor.o)
 .bss.next_trigger
                0x0000000020000284        0x4 contiki-cc2538dk.a(rtimer-arch.o)
 .bss.input_handler
                0x0000000020000288        0x8 contiki-cc2538dk.a(uart.o)
 .bss.interrupt_disable
                0x0000000020000290        0x4 contiki-cc2538dk.a(nvic.o)
 .bss.interrupt_pend
                0x0000000020000294        0x4 contiki-cc2538dk.a(nvic.o)
 .bss.interrupt_unpend
                0x0000000020000298        0x4 contiki-cc2538dk.a(nvic.o)
 .bss.interrupt_enable
                0x000000002000029c        0x4 contiki-cc2538dk.a(nvic.o)
 .bss.gpio_callbacks
                0x00000000200002a0       0x80 contiki-cc2538dk.a(gpio.o)
 .bss.ioc_sel   0x0000000020000320        0x4 contiki-cc2538dk.a(ioc.o)
 .bss.ioc_over  0x0000000020000324        0x4 contiki-cc2538dk.a(ioc.o)
 .bss.notification_process
                0x0000000020000328        0x4 contiki-cc2538dk.a(crypto.o)
 .bss.periph_permit_pm1_funcs
                0x000000002000032c        0xc contiki-cc2538dk.a(lpm.o)
 .bss.timerlist
                0x0000000020000338        0x4 contiki-cc2538dk.a(etimer.o)
 .bss.next_expiration
                0x000000002000033c        0x4 contiki-cc2538dk.a(etimer.o)
 .bss.ctimer_list_list
                0x0000000020000340        0x4 contiki-cc2538dk.a(ctimer.o)
 .bss.receiver.5307
                0x0000000020000344        0x4 contiki-cc2538dk.a(process.o)
 .bss.p.5308    0x0000000020000348        0x4 contiki-cc2538dk.a(process.o)
 .bss.process_current
                0x000000002000034c        0x4 contiki-cc2538dk.a(process.o)
                0x000000002000034c                process_current
 .bss.process_list
                0x0000000020000350        0x4 contiki-cc2538dk.a(process.o)
                0x0000000020000350                process_list
 .bss.events    0x0000000020000354      0x180 contiki-cc2538dk.a(process.o)
 .bss.data.5306
                0x00000000200004d4        0x4 contiki-cc2538dk.a(process.o)
 .bss.next_rtimer
                0x00000000200004d8        0x4 contiki-cc2538dk.a(rtimer.o)
 .bss.ptr.4698  0x00000000200004dc        0x4 contiki-cc2538dk.a(serial-line.o)
 .bss.rxbuf     0x00000000200004e0        0x8 contiki-cc2538dk.a(serial-line.o)
 .bss.defrt     0x00000000200004e8        0x4 contiki-cc2538dk.a(uip-nd6.o)
 .bss.nbr       0x00000000200004ec        0x4 contiki-cc2538dk.a(uip-nd6.o)
 .bss.nd6_opt_llao
                0x00000000200004f0        0x4 contiki-cc2538dk.a(uip-nd6.o)
 .bss.addr      0x00000000200004f4        0x4 contiki-cc2538dk.a(uip-nd6.o)
 .bss.context   0x00000000200004f8        0x4 contiki-cc2538dk.a(sicslowpan.o)
 .bss.last_rssi
                0x00000000200004fc        0x4 contiki-cc2538dk.a(sicslowpan.o)
 .bss.hc06_ptr  0x0000000020000500        0x4 contiki-cc2538dk.a(sicslowpan.o)
 .bss.reass_timer
                0x0000000020000504        0x8 contiki-cc2538dk.a(sicslowpan.o)
 .bss.packetbuf_ptr
                0x000000002000050c        0x4 contiki-cc2538dk.a(sicslowpan.o)
 .bss.packetbuf_payload_len
                0x0000000020000510        0x4 contiki-cc2538dk.a(sicslowpan.o)
 .bss.last_tx_status
                0x0000000020000514        0x4 contiki-cc2538dk.a(sicslowpan.o)
 .bss.sicslowpan_aligned_buf
                0x0000000020000518      0x514 contiki-cc2538dk.a(sicslowpan.o)
 .bss.callback  0x0000000020000a2c        0x4 contiki-cc2538dk.a(sicslowpan.o)
 .bss.periodic  0x0000000020000a30       0x10 contiki-cc2538dk.a(tcpip.o)
 .bss.outputfunc
                0x0000000020000a40        0x4 contiki-cc2538dk.a(tcpip.o)
 .bss._rpl_parents_mem
                0x0000000020000a44      0x190 contiki-cc2538dk.a(rpl-dag.o)
 .bss.periodic_timer
                0x0000000020000bd4       0x20 contiki-cc2538dk.a(rpl-timers.o)
 .bss.bufmem_memb_mem
                0x0000000020000bf4       0x20 contiki-cc2538dk.a(queuebuf.o)
 .bss.nbr_table_keys_list
                0x0000000020000c14        0x4 contiki-cc2538dk.a(nbr-table.o)
 .bss.neighbor_addr_mem_memb_mem
                0x0000000020000c18       0xf0 contiki-cc2538dk.a(nbr-table.o)
 .bss.all_tables
                0x0000000020000d08       0x20 contiki-cc2538dk.a(nbr-table.o)
 .bss.num_tables
                0x0000000020000d28        0x4 contiki-cc2538dk.a(nbr-table.o)
 .bss.packetbufptr
                0x0000000020000d2c        0x4 contiki-cc2538dk.a(packetbuf.o)
 .bss.packetbuf_aligned
                0x0000000020000d30       0xb0 contiki-cc2538dk.a(packetbuf.o)
 .bss.metadata_memb_memb_mem
                0x0000000020000de0       0x60 contiki-cc2538dk.a(csma.o)
 .bss.neighbor_list_list
                0x0000000020000e40        0x4 contiki-cc2538dk.a(csma.o)
 .bss.packet_memb_memb_mem
                0x0000000020000e44       0x60 contiki-cc2538dk.a(csma.o)
 .bss.neighbor_memb_memb_mem
                0x0000000020000ea4       0x70 contiki-cc2538dk.a(csma.o)
 .bss.cycle_start
                0x0000000020000f14        0x4 contiki-cc2538dk.a(contikimac.o)
 .bss.we_are_receiving_burst
                0x0000000020000f18        0x4 contiki-cc2538dk.a(contikimac.o)
 .bss.rt        0x0000000020000f1c        0xc contiki-cc2538dk.a(contikimac.o)
 .bss.start.6908
                0x0000000020000f28        0x4 contiki-cc2538dk.a(contikimac.o)
 .bss.ct.6982   0x0000000020000f2c       0x20 contiki-cc2538dk.a(contikimac.o)
 .bss.echo_reply_callback_list_list
                0x0000000020000f4c        0x4 contiki-cc2538dk.a(uip-icmp6.o)
 .bss.input_handler_list_list
                0x0000000020000f50        0x4 contiki-cc2538dk.a(uip-icmp6.o)
 .bss.locmaddr  0x0000000020000f54        0x4 contiki-cc2538dk.a(uip-ds6.o)
 .bss.locprefix
                0x0000000020000f58        0x4 contiki-cc2538dk.a(uip-ds6.o)
 .bss.locaddr   0x0000000020000f5c        0x4 contiki-cc2538dk.a(uip-ds6.o)
 .bss.defaultroutermemb_memb_mem
                0x0000000020000f60       0x40 contiki-cc2538dk.a(uip-ds6-route.o)
 .bss.num_routes
                0x0000000020000fa0        0x4 contiki-cc2538dk.a(uip-ds6-route.o)
 .bss.defaultrouterlist_list
                0x0000000020000fa4        0x4 contiki-cc2538dk.a(uip-ds6-route.o)
 .bss._nbr_routes_mem
                0x0000000020000fa8       0xa0 contiki-cc2538dk.a(uip-ds6-route.o)
 .bss.routelist_list
                0x0000000020001048        0x4 contiki-cc2538dk.a(uip-ds6-route.o)
 .bss.routememb_memb_mem
                0x000000002000104c      0x320 contiki-cc2538dk.a(uip-ds6-route.o)
 .bss.neighborroutememb_memb_mem
                0x000000002000136c       0xa0 contiki-cc2538dk.a(uip-ds6-route.o)
 .bss.notificationlist_list
                0x000000002000140c        0x4 contiki-cc2538dk.a(uip-ds6-route.o)
 .bss._ds6_neighbors_mem
                0x0000000020001410      0x320 contiki-cc2538dk.a(uip-ds6-nbr.o)
 .bss.lastport  0x0000000020001730        0x2 contiki-cc2538dk.a(uip6.o)
 .bss.reass_tag
                0x0000000020001732        0x2 contiki-cc2538dk.a(sicslowpan.o)
 .bss.sicslowpan_len
                0x0000000020001734        0x2 contiki-cc2538dk.a(sicslowpan.o)
 .bss.my_tag    0x0000000020001736        0x2 contiki-cc2538dk.a(sicslowpan.o)
 .bss.processed_ip_in_len
                0x0000000020001738        0x2 contiki-cc2538dk.a(sicslowpan.o)
 .bss.next_dis  0x000000002000173a        0x2 contiki-cc2538dk.a(rpl-timers.o)
 .bss.buframmem_memb_mem
                0x000000002000173c      0x580 contiki-cc2538dk.a(queuebuf.o)
 .bss.buflen    0x0000000020001cbc        0x2 contiki-cc2538dk.a(packetbuf.o)
 .bss.bufptr    0x0000000020001cbe        0x2 contiki-cc2538dk.a(packetbuf.o)
 .bss.seqno.6167
                0x0000000020001cc0        0x2 contiki-cc2538dk.a(csma.o)
 .bss.pt        0x0000000020001cc2        0x2 contiki-cc2538dk.a(contikimac.o)
 .bss.tmp_ipaddr
                0x0000000020001cc4       0x10 contiki-cc2538dk.a(uip-icmp6.o)
 .bss.loc_fipaddr
                0x0000000020001cd4       0x10 contiki-cc2538dk.a(uip-ds6.o)
 .bss.leds      0x0000000020001ce4        0x1 contiki-cc2538dk.a(leds.o)
 .bss.num_sensors
                0x0000000020001ce5        0x1 contiki-cc2538dk.a(sensors.o)
 .bss.rf_flags  0x0000000020001ce6        0x1 contiki-cc2538dk.a(cc2538-rf.o)
 .bss.max_pm    0x0000000020001ce7        0x1 contiki-cc2538dk.a(lpm.o)
 .bss.initialized
                0x0000000020001ce8        0x1 contiki-cc2538dk.a(ctimer.o)
 .bss.fevent    0x0000000020001ce9        0x1 contiki-cc2538dk.a(process.o)
 .bss.nevents   0x0000000020001cea        0x1 contiki-cc2538dk.a(process.o)
 .bss.poll_requested
                0x0000000020001ceb        0x1 contiki-cc2538dk.a(process.o)
 .bss.ev.5305   0x0000000020001cec        0x1 contiki-cc2538dk.a(process.o)
 .bss.snum.5323
                0x0000000020001ced        0x1 contiki-cc2538dk.a(process.o)
 .bss.lastevent
                0x0000000020001cee        0x1 contiki-cc2538dk.a(process.o)
 .bss.rxbuf_data
                0x0000000020001cef       0x80 contiki-cc2538dk.a(serial-line.o)
 .bss.overflow.4691
                0x0000000020001d6f        0x1 contiki-cc2538dk.a(serial-line.o)
 .bss.buf.4697  0x0000000020001d70       0x80 contiki-cc2538dk.a(serial-line.o)
 .bss.uip_ext_len
                0x0000000020001df0        0x1 contiki-cc2538dk.a(uip6.o)
                0x0000000020001df0                uip_ext_len
 .bss.uip_ext_bitmap
                0x0000000020001df1        0x1 contiki-cc2538dk.a(uip6.o)
                0x0000000020001df1                uip_ext_bitmap
 .bss.uip_ext_opt_offset
                0x0000000020001df2        0x1 contiki-cc2538dk.a(uip6.o)
                0x0000000020001df2                uip_ext_opt_offset
 .bss.c         0x0000000020001df3        0x1 contiki-cc2538dk.a(uip6.o)
 .bss.nd6_opt_offset
                0x0000000020001df4        0x1 contiki-cc2538dk.a(uip-nd6.o)
 .bss.uncomp_hdr_len
                0x0000000020001df5        0x1 contiki-cc2538dk.a(sicslowpan.o)
 .bss.addr_contexts
                0x0000000020001df6        0xa contiki-cc2538dk.a(sicslowpan.o)
 .bss.packetbuf_hdr_len
                0x0000000020001e00        0x1 contiki-cc2538dk.a(sicslowpan.o)
 .bss.dio_send_ok
                0x0000000020001e01        0x1 contiki-cc2538dk.a(rpl-timers.o)
 .bss.mode      0x0000000020001e02        0x1 contiki-cc2538dk.a(rpl.o)
 .bss.buframmem_memb_count
                0x0000000020001e03        0x8 contiki-cc2538dk.a(queuebuf.o)
 .bss.bufmem_memb_count
                0x0000000020001e0b        0x8 contiki-cc2538dk.a(queuebuf.o)
 .bss.neighbor_addr_mem_memb_count
                0x0000000020001e13       0x14 contiki-cc2538dk.a(nbr-table.o)
 .bss.locked_map
                0x0000000020001e27       0x14 contiki-cc2538dk.a(nbr-table.o)
 .bss.used_map  0x0000000020001e3b       0x14 contiki-cc2538dk.a(nbr-table.o)
 .bss.hdrptr    0x0000000020001e4f        0x1 contiki-cc2538dk.a(packetbuf.o)
 .bss.mac_dsn   0x0000000020001e50        0x1 contiki-cc2538dk.a(framer-802154.o)
 .bss.initialized
                0x0000000020001e51        0x1 contiki-cc2538dk.a(framer-802154.o)
 .bss.metadata_memb_memb_count
                0x0000000020001e52        0x8 contiki-cc2538dk.a(csma.o)
 .bss.packet_memb_memb_count
                0x0000000020001e5a        0x8 contiki-cc2538dk.a(csma.o)
 .bss.initialized.6166
                0x0000000020001e62        0x1 contiki-cc2538dk.a(csma.o)
 .bss.neighbor_memb_memb_count
                0x0000000020001e63        0x2 contiki-cc2538dk.a(csma.o)
 .bss.packet_seen.6902
                0x0000000020001e65        0x1 contiki-cc2538dk.a(contikimac.o)
 .bss.radio_is_on
                0x0000000020001e66        0x1 contiki-cc2538dk.a(contikimac.o)
 .bss.we_are_sending
                0x0000000020001e67        0x1 contiki-cc2538dk.a(contikimac.o)
 .bss.contikimac_keep_radio_on
                0x0000000020001e68        0x1 contiki-cc2538dk.a(contikimac.o)
 .bss.silence_periods.6909
                0x0000000020001e69        0x1 contiki-cc2538dk.a(contikimac.o)
 .bss.contikimac_is_on
                0x0000000020001e6a        0x1 contiki-cc2538dk.a(contikimac.o)
 .bss.count.6903
                0x0000000020001e6b        0x1 contiki-cc2538dk.a(contikimac.o)
 .bss.periods.6910
                0x0000000020001e6c        0x1 contiki-cc2538dk.a(contikimac.o)
 .bss.defaultroutermemb_memb_count
                0x0000000020001e6d        0x2 contiki-cc2538dk.a(uip-ds6-route.o)
 .bss.neighborroutememb_memb_count
                0x0000000020001e6f       0x14 contiki-cc2538dk.a(uip-ds6-route.o)
 .bss.routememb_memb_count
                0x0000000020001e83       0x14 contiki-cc2538dk.a(uip-ds6-route.o)
 .bss.received_seqnos
                0x0000000020001e97       0x90 contiki-cc2538dk.a(mac-sequence.o)
 *(SORT(COMMON))
 *fill*         0x0000000020001f27        0x1 
 COMMON         0x0000000020001f28      0x684 contiki-cc2538dk.a(uip6.o)
                0x0000000020001f28                uip_len
                0x0000000020001f2c                uip_sappdata
                0x0000000020001f30                uip_lladdr
                0x0000000020001f38                uip_aligned_buf
                0x000000002000244c                uip_flags
                0x0000000020002450                uip_next_hdr
                0x0000000020002454                uip_udp_conn
                0x0000000020002458                uip_appdata
                0x000000002000245c                uip_conn
                0x0000000020002460                uip_icmp6_conns
                0x0000000020002468                uip_slen
                0x000000002000246c                uip_udp_conns
 COMMON         0x00000000200025ac      0x128 contiki-cc2538dk.a(rpl-dag.o)
                0x00000000200025ac                default_instance
                0x00000000200025b0                instance_table
 COMMON         0x00000000200026d4      0x174 contiki-cc2538dk.a(uip-ds6.o)
                0x00000000200026d4                uip_ds6_timer_ra
                0x00000000200026dc                uip_ds6_if
                0x00000000200027d4                uip_ds6_netif_addr_list_offset
                0x00000000200027d5                uip_ds6_addr_size
                0x00000000200027d8                uip_ds6_prefix_list
                0x0000000020002838                uip_ds6_timer_periodic
 COMMON         0x0000000020002848       0x2e contiki-cc2538dk.a(packetbuf.o)
                0x0000000020002848                packetbuf_addrs
                0x0000000020002858                packetbuf_attrs
 COMMON         0x0000000020002876        0x1 contiki-cc2538dk.a(sensors.o)
                0x0000000020002876                sensors_event
 COMMON         0x0000000020002877        0x9 contiki-cc2538dk.a(smartrf-sensors)
                0x0000000020002877                sensors_flags
 COMMON         0x0000000020002880        0x1 contiki-cc2538dk.a(serial-line.o)
                0x0000000020002880                serial_line_event_message
 COMMON         0x0000000020002881        0x8 contiki-cc2538dk.a(sicslowpan.o)
                0x0000000020002881                frag_sender
 COMMON         0x0000000020002889        0x2 contiki-cc2538dk.a(tcpip.o)
                0x0000000020002889                tcpip_event
                0x000000002000288a                tcpip_icmp6_event
 COMMON         0x000000002000288b        0x8 contiki-cc2538dk.a(linkaddr.o)
                0x000000002000288b                linkaddr_node_addr
                0x0000000020002893                _ebss = .

.stack          0x0000000020002894      0x800
 *(SORT(.stack))
 .stack         0x0000000020002894      0x800 obj_cc2538dk/startup-gcc.o

.flashcca       0x000000000027ffd4       0x2c
 *(SORT(.flashcca))
 .flashcca      0x000000000027ffd4       0x2c obj_cc2538dk/startup-gcc.o
                0x000000000027ffd4                __cca
OUTPUT(dummysensor.elf elf32-littlearm)

.rel.dyn        0x0000000000280000        0x0
 .rel.iplt      0x0000000000280000        0x0 obj_cc2538dk/startup-gcc.o

.comment        0x0000000000000000       0x3f
 .comment       0x0000000000000000       0x20 obj_cc2538dk/startup-gcc.o
                                         0x21 (size before relaxing)
 .comment       0x0000000000000020       0x21 dummysensor.co
 .comment       0x0000000000000020       0x21 contiki-cc2538dk.a(leds.o)
 .comment       0x0000000000000020       0x21 contiki-cc2538dk.a(leds-arch.o)
 .comment       0x0000000000000020       0x21 contiki-cc2538dk.a(contiki-main.o)
 .comment       0x0000000000000020       0x21 contiki-cc2538dk.a(sensors.o)
 .comment       0x0000000000000020       0x21 contiki-cc2538dk.a(smartrf-sensors)
 .comment       0x0000000000000020       0x21 contiki-cc2538dk.a(button-sensor.o)
 .comment       0x0000000000000020       0x21 contiki-cc2538dk.a(als-sensor.o)
 .comment       0x0000000000000020       0x21 contiki-cc2538dk.a(clock.o)
 .comment       0x0000000000000020       0x21 contiki-cc2538dk.a(rtimer-arch.o)
 .comment       0x0000000000000020       0x21 contiki-cc2538dk.a(uart.o)
 .comment       0x0000000000000020       0x21 contiki-cc2538dk.a(watchdog.o)
 .comment       0x0000000000000020       0x21 contiki-cc2538dk.a(nvic.o)
 .comment       0x0000000000000020       0x21 contiki-cc2538dk.a(cpu.o)
 .comment       0x0000000000000020       0x21 contiki-cc2538dk.a(sys-ctrl.o)
 .comment       0x0000000000000020       0x21 contiki-cc2538dk.a(gpio.o)
 .comment       0x0000000000000020       0x21 contiki-cc2538dk.a(ioc.o)
 .comment       0x0000000000000020       0x21 contiki-cc2538dk.a(adc.o)
 .comment       0x0000000000000020       0x21 contiki-cc2538dk.a(crypto.o)
 .comment       0x0000000000000020       0x21 contiki-cc2538dk.a(cc2538-rf.o)
 .comment       0x0000000000000020       0x21 contiki-cc2538dk.a(udma.o)
 .comment       0x0000000000000020       0x21 contiki-cc2538dk.a(lpm.o)
 .comment       0x0000000000000020       0x21 contiki-cc2538dk.a(dbg.o)
 .comment       0x0000000000000020       0x21 contiki-cc2538dk.a(ieee-addr.o)
 .comment       0x0000000000000020       0x21 contiki-cc2538dk.a(cc2538-temp-sen)
 .comment       0x0000000000000020       0x21 contiki-cc2538dk.a(vdd3-sensor.o)
 .comment       0x0000000000000020       0x21 contiki-cc2538dk.a(dbg-printf.o)
 .comment       0x0000000000000020       0x21 contiki-cc2538dk.a(strformat.o)
 .comment       0x0000000000000020       0x21 contiki-cc2538dk.a(autostart.o)
 .comment       0x0000000000000020       0x21 contiki-cc2538dk.a(energest.o)
 .comment       0x0000000000000020       0x21 contiki-cc2538dk.a(etimer.o)
 .comment       0x0000000000000020       0x21 contiki-cc2538dk.a(ctimer.o)
 .comment       0x0000000000000020       0x21 contiki-cc2538dk.a(process.o)
 .comment       0x0000000000000020       0x21 contiki-cc2538dk.a(rtimer.o)
 .comment       0x0000000000000020       0x21 contiki-cc2538dk.a(timer.o)
 .comment       0x0000000000000020       0x21 contiki-cc2538dk.a(serial-line.o)
 .comment       0x0000000000000020       0x21 contiki-cc2538dk.a(list.o)
 .comment       0x0000000000000020       0x21 contiki-cc2538dk.a(random.o)
 .comment       0x0000000000000020       0x21 contiki-cc2538dk.a(ringbuf.o)
 .comment       0x0000000000000020       0x21 contiki-cc2538dk.a(uip6.o)
 .comment       0x0000000000000020       0x21 contiki-cc2538dk.a(uip-nd6.o)
 .comment       0x0000000000000020       0x21 contiki-cc2538dk.a(sicslowpan.o)
 .comment       0x0000000000000020       0x21 contiki-cc2538dk.a(tcpip.o)
 .comment       0x0000000000000020       0x21 contiki-cc2538dk.a(simple-udp.o)
 .comment       0x0000000000000020       0x21 contiki-cc2538dk.a(rpl-dag.o)
 .comment       0x0000000000000020       0x21 contiki-cc2538dk.a(rpl-timers.o)
 .comment       0x0000000000000020       0x21 contiki-cc2538dk.a(rpl-ext-header.)
 .comment       0x0000000000000020       0x21 contiki-cc2538dk.a(rpl.o)
 .comment       0x0000000000000020       0x21 contiki-cc2538dk.a(rpl-mrhof.o)
 .comment       0x0000000000000020       0x21 contiki-cc2538dk.a(queuebuf.o)
 .comment       0x0000000000000020       0x21 contiki-cc2538dk.a(nbr-table.o)
 .comment       0x0000000000000020       0x21 contiki-cc2538dk.a(packetbuf.o)
 .comment       0x0000000000000020       0x21 contiki-cc2538dk.a(netstack.o)
 .comment       0x0000000000000020       0x21 contiki-cc2538dk.a(linkaddr.o)
 .comment       0x0000000000000020       0x21 contiki-cc2538dk.a(framer-802154.o)
 .comment       0x0000000000000020       0x21 contiki-cc2538dk.a(csma.o)
 .comment       0x0000000000000020       0x21 contiki-cc2538dk.a(frame802154.o)
 .comment       0x0000000000000020       0x21 contiki-cc2538dk.a(mac.o)
 .comment       0x0000000000000020       0x21 contiki-cc2538dk.a(framer.o)
 .comment       0x0000000000000020       0x21 contiki-cc2538dk.a(contikimac.o)
 .comment       0x0000000000000020       0x21 contiki-cc2538dk.a(nullsec.o)
 .comment       0x0000000000000020       0x21 contiki-cc2538dk.a(stimer.o)
 .comment       0x0000000000000020       0x21 contiki-cc2538dk.a(memb.o)
 .comment       0x0000000000000020       0x21 contiki-cc2538dk.a(uip-icmp6.o)
 .comment       0x0000000000000020       0x21 contiki-cc2538dk.a(uip-ds6.o)
 .comment       0x0000000000000020       0x21 contiki-cc2538dk.a(uip-ds6-route.o)
 .comment       0x0000000000000020       0x21 contiki-cc2538dk.a(uip-ds6-nbr.o)
 .comment       0x0000000000000020       0x21 contiki-cc2538dk.a(uip-debug.o)
 .comment       0x0000000000000020       0x21 contiki-cc2538dk.a(uip-udp-packet.)
 .comment       0x0000000000000020       0x21 contiki-cc2538dk.a(rpl-icmp6.o)
 .comment       0x0000000000000020       0x21 contiki-cc2538dk.a(mac-sequence.o)
 .comment       0x0000000000000020       0x21 /usr/lib/gcc/arm-none-eabi/4.8/armv7-m/libgcc.a(bpabi.o)
 .comment       0x0000000000000020       0x21 /usr/lib/gcc/arm-none-eabi/4.8/armv7-m/libgcc.a(_divdi3.o)
 .comment       0x0000000000000020       0x21 /usr/lib/gcc/arm-none-eabi/4.8/armv7-m/libgcc.a(_udivdi3.o)
 .comment       0x0000000000000020       0x1f /usr/lib/gcc/arm-none-eabi/4.8/../../../arm-none-eabi/lib/armv7-m/libc.a(lib_a-memcmp.o)
                                         0x20 (size before relaxing)
 .comment       0x000000000000003f       0x20 /usr/lib/gcc/arm-none-eabi/4.8/../../../arm-none-eabi/lib/armv7-m/libc.a(lib_a-memmove.o)
 .comment       0x000000000000003f       0x20 /usr/lib/gcc/arm-none-eabi/4.8/../../../arm-none-eabi/lib/armv7-m/libc.a(lib_a-memset.o)

.ARM.attributes
                0x0000000000000000       0x31
 .ARM.attributes
                0x0000000000000000       0x33 obj_cc2538dk/startup-gcc.o
 .ARM.attributes
                0x0000000000000033       0x33 dummysensor.co
 .ARM.attributes
                0x0000000000000066       0x33 contiki-cc2538dk.a(leds.o)
 .ARM.attributes
                0x0000000000000099       0x33 contiki-cc2538dk.a(leds-arch.o)
 .ARM.attributes
                0x00000000000000cc       0x33 contiki-cc2538dk.a(contiki-main.o)
 .ARM.attributes
                0x00000000000000ff       0x33 contiki-cc2538dk.a(sensors.o)
 .ARM.attributes
                0x0000000000000132       0x33 contiki-cc2538dk.a(smartrf-sensors)
 .ARM.attributes
                0x0000000000000165       0x33 contiki-cc2538dk.a(button-sensor.o)
 .ARM.attributes
                0x0000000000000198       0x33 contiki-cc2538dk.a(als-sensor.o)
 .ARM.attributes
                0x00000000000001cb       0x33 contiki-cc2538dk.a(clock.o)
 .ARM.attributes
                0x00000000000001fe       0x33 contiki-cc2538dk.a(rtimer-arch.o)
 .ARM.attributes
                0x0000000000000231       0x33 contiki-cc2538dk.a(uart.o)
 .ARM.attributes
                0x0000000000000264       0x33 contiki-cc2538dk.a(watchdog.o)
 .ARM.attributes
                0x0000000000000297       0x33 contiki-cc2538dk.a(nvic.o)
 .ARM.attributes
                0x00000000000002ca       0x33 contiki-cc2538dk.a(cpu.o)
 .ARM.attributes
                0x00000000000002fd       0x33 contiki-cc2538dk.a(sys-ctrl.o)
 .ARM.attributes
                0x0000000000000330       0x33 contiki-cc2538dk.a(gpio.o)
 .ARM.attributes
                0x0000000000000363       0x33 contiki-cc2538dk.a(ioc.o)
 .ARM.attributes
                0x0000000000000396       0x33 contiki-cc2538dk.a(adc.o)
 .ARM.attributes
                0x00000000000003c9       0x33 contiki-cc2538dk.a(crypto.o)
 .ARM.attributes
                0x00000000000003fc       0x33 contiki-cc2538dk.a(cc2538-rf.o)
 .ARM.attributes
                0x000000000000042f       0x33 contiki-cc2538dk.a(udma.o)
 .ARM.attributes
                0x0000000000000462       0x33 contiki-cc2538dk.a(lpm.o)
 .ARM.attributes
                0x0000000000000495       0x33 contiki-cc2538dk.a(dbg.o)
 .ARM.attributes
                0x00000000000004c8       0x33 contiki-cc2538dk.a(ieee-addr.o)
 .ARM.attributes
                0x00000000000004fb       0x33 contiki-cc2538dk.a(cc2538-temp-sen)
 .ARM.attributes
                0x000000000000052e       0x33 contiki-cc2538dk.a(vdd3-sensor.o)
 .ARM.attributes
                0x0000000000000561       0x33 contiki-cc2538dk.a(dbg-printf.o)
 .ARM.attributes
                0x0000000000000594       0x33 contiki-cc2538dk.a(strformat.o)
 .ARM.attributes
                0x00000000000005c7       0x33 contiki-cc2538dk.a(autostart.o)
 .ARM.attributes
                0x00000000000005fa       0x33 contiki-cc2538dk.a(energest.o)
 .ARM.attributes
                0x000000000000062d       0x33 contiki-cc2538dk.a(etimer.o)
 .ARM.attributes
                0x0000000000000660       0x33 contiki-cc2538dk.a(ctimer.o)
 .ARM.attributes
                0x0000000000000693       0x33 contiki-cc2538dk.a(process.o)
 .ARM.attributes
                0x00000000000006c6       0x33 contiki-cc2538dk.a(rtimer.o)
 .ARM.attributes
                0x00000000000006f9       0x33 contiki-cc2538dk.a(timer.o)
 .ARM.attributes
                0x000000000000072c       0x33 contiki-cc2538dk.a(serial-line.o)
 .ARM.attributes
                0x000000000000075f       0x33 contiki-cc2538dk.a(list.o)
 .ARM.attributes
                0x0000000000000792       0x33 contiki-cc2538dk.a(random.o)
 .ARM.attributes
                0x00000000000007c5       0x33 contiki-cc2538dk.a(ringbuf.o)
 .ARM.attributes
                0x00000000000007f8       0x33 contiki-cc2538dk.a(uip6.o)
 .ARM.attributes
                0x000000000000082b       0x33 contiki-cc2538dk.a(uip-nd6.o)
 .ARM.attributes
                0x000000000000085e       0x33 contiki-cc2538dk.a(sicslowpan.o)
 .ARM.attributes
                0x0000000000000891       0x33 contiki-cc2538dk.a(tcpip.o)
 .ARM.attributes
                0x00000000000008c4       0x33 contiki-cc2538dk.a(simple-udp.o)
 .ARM.attributes
                0x00000000000008f7       0x33 contiki-cc2538dk.a(rpl-dag.o)
 .ARM.attributes
                0x000000000000092a       0x33 contiki-cc2538dk.a(rpl-timers.o)
 .ARM.attributes
                0x000000000000095d       0x33 contiki-cc2538dk.a(rpl-ext-header.)
 .ARM.attributes
                0x0000000000000990       0x33 contiki-cc2538dk.a(rpl.o)
 .ARM.attributes
                0x00000000000009c3       0x33 contiki-cc2538dk.a(rpl-mrhof.o)
 .ARM.attributes
                0x00000000000009f6       0x33 contiki-cc2538dk.a(queuebuf.o)
 .ARM.attributes
                0x0000000000000a29       0x33 contiki-cc2538dk.a(nbr-table.o)
 .ARM.attributes
                0x0000000000000a5c       0x33 contiki-cc2538dk.a(packetbuf.o)
 .ARM.attributes
                0x0000000000000a8f       0x33 contiki-cc2538dk.a(netstack.o)
 .ARM.attributes
                0x0000000000000ac2       0x33 contiki-cc2538dk.a(linkaddr.o)
 .ARM.attributes
                0x0000000000000af5       0x33 contiki-cc2538dk.a(framer-802154.o)
 .ARM.attributes
                0x0000000000000b28       0x33 contiki-cc2538dk.a(csma.o)
 .ARM.attributes
                0x0000000000000b5b       0x33 contiki-cc2538dk.a(frame802154.o)
 .ARM.attributes
                0x0000000000000b8e       0x33 contiki-cc2538dk.a(mac.o)
 .ARM.attributes
                0x0000000000000bc1       0x33 contiki-cc2538dk.a(framer.o)
 .ARM.attributes
                0x0000000000000bf4       0x33 contiki-cc2538dk.a(contikimac.o)
 .ARM.attributes
                0x0000000000000c27       0x33 contiki-cc2538dk.a(nullsec.o)
 .ARM.attributes
                0x0000000000000c5a       0x33 contiki-cc2538dk.a(stimer.o)
 .ARM.attributes
                0x0000000000000c8d       0x33 contiki-cc2538dk.a(memb.o)
 .ARM.attributes
                0x0000000000000cc0       0x33 contiki-cc2538dk.a(uip-icmp6.o)
 .ARM.attributes
                0x0000000000000cf3       0x33 contiki-cc2538dk.a(uip-ds6.o)
 .ARM.attributes
                0x0000000000000d26       0x33 contiki-cc2538dk.a(uip-ds6-route.o)
 .ARM.attributes
                0x0000000000000d59       0x33 contiki-cc2538dk.a(uip-ds6-nbr.o)
 .ARM.attributes
                0x0000000000000d8c       0x33 contiki-cc2538dk.a(uip-debug.o)
 .ARM.attributes
                0x0000000000000dbf       0x33 contiki-cc2538dk.a(uip-udp-packet.)
 .ARM.attributes
                0x0000000000000df2       0x33 contiki-cc2538dk.a(rpl-icmp6.o)
 .ARM.attributes
                0x0000000000000e25       0x33 contiki-cc2538dk.a(mac-sequence.o)
 .ARM.attributes
                0x0000000000000e58       0x1d /usr/lib/gcc/arm-none-eabi/4.8/armv7-m/libgcc.a(_aeabi_uldivmod.o)
 .ARM.attributes
                0x0000000000000e75       0x2d /usr/lib/gcc/arm-none-eabi/4.8/armv7-m/libgcc.a(bpabi.o)
 .ARM.attributes
                0x0000000000000ea2       0x1d /usr/lib/gcc/arm-none-eabi/4.8/armv7-m/libgcc.a(_dvmd_tls.o)
 .ARM.attributes
                0x0000000000000ebf       0x2d /usr/lib/gcc/arm-none-eabi/4.8/armv7-m/libgcc.a(_divdi3.o)
 .ARM.attributes
                0x0000000000000eec       0x2d /usr/lib/gcc/arm-none-eabi/4.8/armv7-m/libgcc.a(_udivdi3.o)
 .ARM.attributes
                0x0000000000000f19       0x2d /usr/lib/gcc/arm-none-eabi/4.8/../../../arm-none-eabi/lib/armv7-m/libc.a(lib_a-memcmp.o)
 .ARM.attributes
                0x0000000000000f46       0x1b /usr/lib/gcc/arm-none-eabi/4.8/../../../arm-none-eabi/lib/armv7-m/libc.a(lib_a-memcpy.o)
 .ARM.attributes
                0x0000000000000f61       0x2d /usr/lib/gcc/arm-none-eabi/4.8/../../../arm-none-eabi/lib/armv7-m/libc.a(lib_a-memmove.o)
 .ARM.attributes
                0x0000000000000f8e       0x2d /usr/lib/gcc/arm-none-eabi/4.8/../../../arm-none-eabi/lib/armv7-m/libc.a(lib_a-memset.o)

.debug_line     0x0000000000000000      0x717
 .debug_line    0x0000000000000000       0x68 /usr/lib/gcc/arm-none-eabi/4.8/armv7-m/libgcc.a(_aeabi_uldivmod.o)
 .debug_line    0x0000000000000068       0x68 /usr/lib/gcc/arm-none-eabi/4.8/armv7-m/libgcc.a(bpabi.o)
 .debug_line    0x00000000000000d0       0x64 /usr/lib/gcc/arm-none-eabi/4.8/armv7-m/libgcc.a(_dvmd_tls.o)
 .debug_line    0x0000000000000134       0xeb /usr/lib/gcc/arm-none-eabi/4.8/armv7-m/libgcc.a(_divdi3.o)
 .debug_line    0x000000000000021f       0xf5 /usr/lib/gcc/arm-none-eabi/4.8/armv7-m/libgcc.a(_udivdi3.o)
 .debug_line    0x0000000000000314      0x108 /usr/lib/gcc/arm-none-eabi/4.8/../../../arm-none-eabi/lib/armv7-m/libc.a(lib_a-memcmp.o)
 .debug_line    0x000000000000041c       0xbb /usr/lib/gcc/arm-none-eabi/4.8/../../../arm-none-eabi/lib/armv7-m/libc.a(lib_a-memcpy.o)
 .debug_line    0x00000000000004d7      0x126 /usr/lib/gcc/arm-none-eabi/4.8/../../../arm-none-eabi/lib/armv7-m/libc.a(lib_a-memmove.o)
 .debug_line    0x00000000000005fd      0x11a /usr/lib/gcc/arm-none-eabi/4.8/../../../arm-none-eabi/lib/armv7-m/libc.a(lib_a-memset.o)

.debug_info     0x0000000000000000     0x11ed
 .debug_info    0x0000000000000000       0x9f /usr/lib/gcc/arm-none-eabi/4.8/armv7-m/libgcc.a(_aeabi_uldivmod.o)
 .debug_info    0x000000000000009f      0x164 /usr/lib/gcc/arm-none-eabi/4.8/armv7-m/libgcc.a(bpabi.o)
 .debug_info    0x0000000000000203       0xa3 /usr/lib/gcc/arm-none-eabi/4.8/armv7-m/libgcc.a(_dvmd_tls.o)
 .debug_info    0x00000000000002a6      0x5ac /usr/lib/gcc/arm-none-eabi/4.8/armv7-m/libgcc.a(_divdi3.o)
 .debug_info    0x0000000000000852      0x577 /usr/lib/gcc/arm-none-eabi/4.8/armv7-m/libgcc.a(_udivdi3.o)
 .debug_info    0x0000000000000dc9      0x113 /usr/lib/gcc/arm-none-eabi/4.8/../../../arm-none-eabi/lib/armv7-m/libc.a(lib_a-memcmp.o)
 .debug_info    0x0000000000000edc       0xc9 /usr/lib/gcc/arm-none-eabi/4.8/../../../arm-none-eabi/lib/armv7-m/libc.a(lib_a-memcpy.o)
 .debug_info    0x0000000000000fa5      0x131 /usr/lib/gcc/arm-none-eabi/4.8/../../../arm-none-eabi/lib/armv7-m/libc.a(lib_a-memmove.o)
 .debug_info    0x00000000000010d6      0x117 /usr/lib/gcc/arm-none-eabi/4.8/../../../arm-none-eabi/lib/armv7-m/libc.a(lib_a-memset.o)

.debug_abbrev   0x0000000000000000      0x56a
 .debug_abbrev  0x0000000000000000       0x14 /usr/lib/gcc/arm-none-eabi/4.8/armv7-m/libgcc.a(_aeabi_uldivmod.o)
 .debug_abbrev  0x0000000000000014       0xb7 /usr/lib/gcc/arm-none-eabi/4.8/armv7-m/libgcc.a(bpabi.o)
 .debug_abbrev  0x00000000000000cb       0x14 /usr/lib/gcc/arm-none-eabi/4.8/armv7-m/libgcc.a(_dvmd_tls.o)
 .debug_abbrev  0x00000000000000df      0x15a /usr/lib/gcc/arm-none-eabi/4.8/armv7-m/libgcc.a(_divdi3.o)
 .debug_abbrev  0x0000000000000239      0x154 /usr/lib/gcc/arm-none-eabi/4.8/armv7-m/libgcc.a(_udivdi3.o)
 .debug_abbrev  0x000000000000038d       0x7f /usr/lib/gcc/arm-none-eabi/4.8/../../../arm-none-eabi/lib/armv7-m/libc.a(lib_a-memcmp.o)
 .debug_abbrev  0x000000000000040c       0x14 /usr/lib/gcc/arm-none-eabi/4.8/../../../arm-none-eabi/lib/armv7-m/libc.a(lib_a-memcpy.o)
 .debug_abbrev  0x0000000000000420       0xab /usr/lib/gcc/arm-none-eabi/4.8/../../../arm-none-eabi/lib/armv7-m/libc.a(lib_a-memmove.o)
 .debug_abbrev  0x00000000000004cb       0x9f /usr/lib/gcc/arm-none-eabi/4.8/../../../arm-none-eabi/lib/armv7-m/libc.a(lib_a-memset.o)

.debug_aranges  0x0000000000000000      0x120
 .debug_aranges
                0x0000000000000000       0x20 /usr/lib/gcc/arm-none-eabi/4.8/armv7-m/libgcc.a(_aeabi_uldivmod.o)
 .debug_aranges
                0x0000000000000020       0x20 /usr/lib/gcc/arm-none-eabi/4.8/armv7-m/libgcc.a(bpabi.o)
 .debug_aranges
                0x0000000000000040       0x20 /usr/lib/gcc/arm-none-eabi/4.8/armv7-m/libgcc.a(_dvmd_tls.o)
 .debug_aranges
                0x0000000000000060       0x20 /usr/lib/gcc/arm-none-eabi/4.8/armv7-m/libgcc.a(_divdi3.o)
 .debug_aranges
                0x0000000000000080       0x20 /usr/lib/gcc/arm-none-eabi/4.8/armv7-m/libgcc.a(_udivdi3.o)
 .debug_aranges
                0x00000000000000a0       0x20 /usr/lib/gcc/arm-none-eabi/4.8/../../../arm-none-eabi/lib/armv7-m/libc.a(lib_a-memcmp.o)
 .debug_aranges
                0x00000000000000c0       0x20 /usr/lib/gcc/arm-none-eabi/4.8/../../../arm-none-eabi/lib/armv7-m/libc.a(lib_a-memcpy.o)
 .debug_aranges
                0x00000000000000e0       0x20 /usr/lib/gcc/arm-none-eabi/4.8/../../../arm-none-eabi/lib/armv7-m/libc.a(lib_a-memmove.o)
 .debug_aranges
                0x0000000000000100       0x20 /usr/lib/gcc/arm-none-eabi/4.8/../../../arm-none-eabi/lib/armv7-m/libc.a(lib_a-memset.o)

.debug_loc      0x0000000000000000     0x1f51
 .debug_loc     0x0000000000000000       0xa0 /usr/lib/gcc/arm-none-eabi/4.8/armv7-m/libgcc.a(bpabi.o)
 .debug_loc     0x00000000000000a0      0xc65 /usr/lib/gcc/arm-none-eabi/4.8/armv7-m/libgcc.a(_divdi3.o)
 .debug_loc     0x0000000000000d05      0xd14 /usr/lib/gcc/arm-none-eabi/4.8/armv7-m/libgcc.a(_udivdi3.o)
 .debug_loc     0x0000000000001a19       0xe3 /usr/lib/gcc/arm-none-eabi/4.8/../../../arm-none-eabi/lib/armv7-m/libc.a(lib_a-memcmp.o)
 .debug_loc     0x0000000000001afc      0x2ca /usr/lib/gcc/arm-none-eabi/4.8/../../../arm-none-eabi/lib/armv7-m/libc.a(lib_a-memmove.o)
 .debug_loc     0x0000000000001dc6      0x18b /usr/lib/gcc/arm-none-eabi/4.8/../../../arm-none-eabi/lib/armv7-m/libc.a(lib_a-memset.o)

.debug_str      0x0000000000000000      0x482
 .debug_str     0x0000000000000000      0x16b /usr/lib/gcc/arm-none-eabi/4.8/armv7-m/libgcc.a(bpabi.o)
 .debug_str     0x000000000000016b      0x15a /usr/lib/gcc/arm-none-eabi/4.8/armv7-m/libgcc.a(_divdi3.o)
                                        0x219 (size before relaxing)
 .debug_str     0x00000000000002c5      0x21a /usr/lib/gcc/arm-none-eabi/4.8/armv7-m/libgcc.a(_udivdi3.o)
 .debug_str     0x00000000000002c5      0x10c /usr/lib/gcc/arm-none-eabi/4.8/../../../arm-none-eabi/lib/armv7-m/libc.a(lib_a-memcmp.o)
                                        0x19e (size before relaxing)
 .debug_str     0x00000000000003d1       0x68 /usr/lib/gcc/arm-none-eabi/4.8/../../../arm-none-eabi/lib/armv7-m/libc.a(lib_a-memmove.o)
                                        0x1d1 (size before relaxing)
 .debug_str     0x0000000000000439       0x49 /usr/lib/gcc/arm-none-eabi/4.8/../../../arm-none-eabi/lib/armv7-m/libc.a(lib_a-memset.o)
                                        0x1b2 (size before relaxing)

.debug_frame    0x0000000000000000      0x144
 .debug_frame   0x0000000000000000       0x58 /usr/lib/gcc/arm-none-eabi/4.8/armv7-m/libgcc.a(bpabi.o)
 .debug_frame   0x0000000000000058       0x34 /usr/lib/gcc/arm-none-eabi/4.8/armv7-m/libgcc.a(_divdi3.o)
 .debug_frame   0x000000000000008c       0x34 /usr/lib/gcc/arm-none-eabi/4.8/armv7-m/libgcc.a(_udivdi3.o)
 .debug_frame   0x00000000000000c0       0x2c /usr/lib/gcc/arm-none-eabi/4.8/../../../arm-none-eabi/lib/armv7-m/libc.a(lib_a-memcmp.o)
 .debug_frame   0x00000000000000ec       0x2c /usr/lib/gcc/arm-none-eabi/4.8/../../../arm-none-eabi/lib/armv7-m/libc.a(lib_a-memmove.o)
 .debug_frame   0x0000000000000118       0x2c /usr/lib/gcc/arm-none-eabi/4.8/../../../arm-none-eabi/lib/armv7-m/libc.a(lib_a-memset.o)

.debug_ranges   0x0000000000000000      0x220
 .debug_ranges  0x0000000000000000       0xf0 /usr/lib/gcc/arm-none-eabi/4.8/armv7-m/libgcc.a(_divdi3.o)
 .debug_ranges  0x00000000000000f0      0x100 /usr/lib/gcc/arm-none-eabi/4.8/armv7-m/libgcc.a(_udivdi3.o)
 .debug_ranges  0x00000000000001f0       0x10 /usr/lib/gcc/arm-none-eabi/4.8/../../../arm-none-eabi/lib/armv7-m/libc.a(lib_a-memcmp.o)
 .debug_ranges  0x0000000000000200       0x10 /usr/lib/gcc/arm-none-eabi/4.8/../../../arm-none-eabi/lib/armv7-m/libc.a(lib_a-memmove.o)
 .debug_ranges  0x0000000000000210       0x10 /usr/lib/gcc/arm-none-eabi/4.8/../../../arm-none-eabi/lib/armv7-m/libc.a(lib_a-memset.o)

Cross Reference Table

Symbol                                            File
GetPeriod                                         dummysensor.co
MyInit                                            dummysensor.co
Payload                                           dummysensor.co
__aeabi_idiv0                                     /usr/lib/gcc/arm-none-eabi/4.8/armv7-m/libgcc.a(_dvmd_tls.o)
__aeabi_ldiv0                                     /usr/lib/gcc/arm-none-eabi/4.8/armv7-m/libgcc.a(_dvmd_tls.o)
                                                  /usr/lib/gcc/arm-none-eabi/4.8/armv7-m/libgcc.a(_aeabi_uldivmod.o)
__aeabi_uldivmod                                  /usr/lib/gcc/arm-none-eabi/4.8/armv7-m/libgcc.a(_aeabi_uldivmod.o)
                                                  contiki-cc2538dk.a(strformat.o)
__cca                                             obj_cc2538dk/startup-gcc.o
__divdi3                                          /usr/lib/gcc/arm-none-eabi/4.8/armv7-m/libgcc.a(_divdi3.o)
                                                  /usr/lib/gcc/arm-none-eabi/4.8/armv7-m/libgcc.a(bpabi.o)
__gnu_ldivmod_helper                              /usr/lib/gcc/arm-none-eabi/4.8/armv7-m/libgcc.a(bpabi.o)
__gnu_uldivmod_helper                             /usr/lib/gcc/arm-none-eabi/4.8/armv7-m/libgcc.a(bpabi.o)
                                                  /usr/lib/gcc/arm-none-eabi/4.8/armv7-m/libgcc.a(_aeabi_uldivmod.o)
__udivdi3                                         /usr/lib/gcc/arm-none-eabi/4.8/armv7-m/libgcc.a(_udivdi3.o)
                                                  /usr/lib/gcc/arm-none-eabi/4.8/armv7-m/libgcc.a(bpabi.o)
_bss                                              obj_cc2538dk/startup-gcc.o
_data                                             obj_cc2538dk/startup-gcc.o
_ebss                                             obj_cc2538dk/startup-gcc.o
_edata                                            obj_cc2538dk/startup-gcc.o
_ldata                                            obj_cc2538dk/startup-gcc.o
_text                                             obj_cc2538dk/startup-gcc.o
adc_get                                           contiki-cc2538dk.a(adc.o)
                                                  contiki-cc2538dk.a(vdd3-sensor.o)
                                                  contiki-cc2538dk.a(cc2538-temp-sen)
                                                  contiki-cc2538dk.a(als-sensor.o)
adc_init                                          contiki-cc2538dk.a(adc.o)
                                                  contiki-cc2538dk.a(contiki-main.o)
als_sensor                                        contiki-cc2538dk.a(als-sensor.o)
                                                  contiki-cc2538dk.a(smartrf-sensors)
autostart_exit                                    contiki-cc2538dk.a(autostart.o)
autostart_processes                               dummysensor.co
                                                  contiki-cc2538dk.a(contiki-main.o)
autostart_start                                   contiki-cc2538dk.a(autostart.o)
                                                  contiki-cc2538dk.a(contiki-main.o)
button_down_sensor                                contiki-cc2538dk.a(button-sensor.o)
                                                  contiki-cc2538dk.a(smartrf-sensors)
button_left_sensor                                contiki-cc2538dk.a(button-sensor.o)
                                                  contiki-cc2538dk.a(smartrf-sensors)
button_right_sensor                               contiki-cc2538dk.a(button-sensor.o)
                                                  contiki-cc2538dk.a(smartrf-sensors)
button_select_sensor                              contiki-cc2538dk.a(button-sensor.o)
                                                  contiki-cc2538dk.a(smartrf-sensors)
button_sensor_init                                contiki-cc2538dk.a(button-sensor.o)
                                                  contiki-cc2538dk.a(contiki-main.o)
button_up_sensor                                  contiki-cc2538dk.a(button-sensor.o)
                                                  contiki-cc2538dk.a(smartrf-sensors)
cc2538_rf_driver                                  contiki-cc2538dk.a(cc2538-rf.o)
                                                  contiki-cc2538dk.a(contikimac.o)
                                                  contiki-cc2538dk.a(netstack.o)
                                                  contiki-cc2538dk.a(contiki-main.o)
cc2538_rf_err_isr                                 contiki-cc2538dk.a(cc2538-rf.o)
                                                  obj_cc2538dk/startup-gcc.o
cc2538_rf_process                                 contiki-cc2538dk.a(cc2538-rf.o)
cc2538_rf_rx_tx_isr                               contiki-cc2538dk.a(cc2538-rf.o)
                                                  obj_cc2538dk/startup-gcc.o
cc2538_rf_set_promiscous_mode                     contiki-cc2538dk.a(cc2538-rf.o)
cc2538_temp_sensor                                contiki-cc2538dk.a(cc2538-temp-sen)
                                                  contiki-cc2538dk.a(smartrf-sensors)
clock_adjust                                      contiki-cc2538dk.a(clock.o)
                                                  contiki-cc2538dk.a(lpm.o)
clock_delay                                       contiki-cc2538dk.a(clock.o)
                                                  contiki-cc2538dk.a(leds.o)
clock_delay_usec                                  contiki-cc2538dk.a(clock.o)
                                                  contiki-cc2538dk.a(cc2538-rf.o)
                                                  contiki-cc2538dk.a(als-sensor.o)
clock_init                                        contiki-cc2538dk.a(clock.o)
                                                  contiki-cc2538dk.a(contiki-main.o)
clock_isr                                         contiki-cc2538dk.a(clock.o)
                                                  obj_cc2538dk/startup-gcc.o
clock_seconds                                     contiki-cc2538dk.a(clock.o)
                                                  contiki-cc2538dk.a(stimer.o)
clock_set_seconds                                 contiki-cc2538dk.a(clock.o)
clock_time                                        contiki-cc2538dk.a(clock.o)
                                                  contiki-cc2538dk.a(rpl.o)
                                                  contiki-cc2538dk.a(rpl-timers.o)
                                                  contiki-cc2538dk.a(rpl-dag.o)
                                                  contiki-cc2538dk.a(timer.o)
                                                  contiki-cc2538dk.a(etimer.o)
                                                  dummysensor.co
clock_wait                                        contiki-cc2538dk.a(clock.o)
                                                  dummysensor.co
contikimac_debug_print                            contiki-cc2538dk.a(contikimac.o)
contikimac_driver                                 contiki-cc2538dk.a(contikimac.o)
                                                  contiki-cc2538dk.a(csma.o)
                                                  contiki-cc2538dk.a(netstack.o)
                                                  contiki-cc2538dk.a(cc2538-rf.o)
                                                  contiki-cc2538dk.a(contiki-main.o)
cpu_cpsid                                         contiki-cc2538dk.a(cpu.o)
                                                  contiki-cc2538dk.a(watchdog.o)
                                                  contiki-cc2538dk.a(rtimer-arch.o)
cpu_cpsie                                         contiki-cc2538dk.a(cpu.o)
                                                  contiki-cc2538dk.a(rtimer-arch.o)
                                                  contiki-cc2538dk.a(contiki-main.o)
crypto_disable                                    contiki-cc2538dk.a(crypto.o)
crypto_enable                                     contiki-cc2538dk.a(crypto.o)
crypto_init                                       contiki-cc2538dk.a(crypto.o)
crypto_isr                                        contiki-cc2538dk.a(crypto.o)
                                                  obj_cc2538dk/startup-gcc.o
crypto_register_process_notification              contiki-cc2538dk.a(crypto.o)
csma_driver                                       contiki-cc2538dk.a(csma.o)
                                                  contiki-cc2538dk.a(nullsec.o)
                                                  contiki-cc2538dk.a(contikimac.o)
                                                  contiki-cc2538dk.a(netstack.o)
                                                  contiki-cc2538dk.a(contiki-main.o)
ctimer_expired                                    contiki-cc2538dk.a(ctimer.o)
ctimer_init                                       contiki-cc2538dk.a(ctimer.o)
                                                  contiki-cc2538dk.a(contiki-main.o)
ctimer_process                                    contiki-cc2538dk.a(ctimer.o)
ctimer_reset                                      contiki-cc2538dk.a(ctimer.o)
                                                  contiki-cc2538dk.a(rpl-timers.o)
                                                  dummysensor.co
ctimer_restart                                    contiki-cc2538dk.a(ctimer.o)
ctimer_set                                        contiki-cc2538dk.a(ctimer.o)
                                                  contiki-cc2538dk.a(contikimac.o)
                                                  contiki-cc2538dk.a(csma.o)
                                                  contiki-cc2538dk.a(rpl-timers.o)
                                                  dummysensor.co
ctimer_stop                                       contiki-cc2538dk.a(ctimer.o)
                                                  contiki-cc2538dk.a(contikimac.o)
                                                  contiki-cc2538dk.a(csma.o)
                                                  contiki-cc2538dk.a(rpl-timers.o)
                                                  contiki-cc2538dk.a(rpl-dag.o)
dao_ack_output                                    contiki-cc2538dk.a(rpl-icmp6.o)
dao_output                                        contiki-cc2538dk.a(rpl-icmp6.o)
                                                  contiki-cc2538dk.a(rpl-timers.o)
                                                  contiki-cc2538dk.a(rpl-dag.o)
dao_output_target                                 contiki-cc2538dk.a(rpl-icmp6.o)
                                                  contiki-cc2538dk.a(rpl.o)
                                                  contiki-cc2538dk.a(rpl-ext-header.)
dbg_send_bytes                                    contiki-cc2538dk.a(dbg.o)
                                                  contiki-cc2538dk.a(dbg-printf.o)
default_handler                                   obj_cc2538dk/startup-gcc.o
default_instance                                  contiki-cc2538dk.a(rpl-dag.o)
                                                  contiki-cc2538dk.a(rpl.o)
                                                  contiki-cc2538dk.a(rpl-ext-header.)
dio_output                                        contiki-cc2538dk.a(rpl-icmp6.o)
                                                  contiki-cc2538dk.a(rpl-timers.o)
dis_output                                        contiki-cc2538dk.a(rpl-icmp6.o)
                                                  contiki-cc2538dk.a(rpl-timers.o)
ds6_neighbors                                     contiki-cc2538dk.a(uip-ds6-nbr.o)
                                                  contiki-cc2538dk.a(rpl-dag.o)
dummysensor_process                               dummysensor.co
energest_flush                                    contiki-cc2538dk.a(energest.o)
energest_init                                     contiki-cc2538dk.a(energest.o)
                                                  contiki-cc2538dk.a(contiki-main.o)
energest_type_set                                 contiki-cc2538dk.a(energest.o)
energest_type_time                                contiki-cc2538dk.a(energest.o)
etimer_adjust                                     contiki-cc2538dk.a(etimer.o)
etimer_expiration_time                            contiki-cc2538dk.a(etimer.o)
                                                  contiki-cc2538dk.a(rpl-timers.o)
etimer_expired                                    contiki-cc2538dk.a(etimer.o)
                                                  contiki-cc2538dk.a(rpl-timers.o)
                                                  contiki-cc2538dk.a(tcpip.o)
                                                  contiki-cc2538dk.a(ctimer.o)
                                                  dummysensor.co
etimer_next_expiration_time                       contiki-cc2538dk.a(etimer.o)
etimer_pending                                    contiki-cc2538dk.a(etimer.o)
                                                  contiki-cc2538dk.a(clock.o)
etimer_process                                    contiki-cc2538dk.a(etimer.o)
                                                  contiki-cc2538dk.a(contiki-main.o)
etimer_request_poll                               contiki-cc2538dk.a(etimer.o)
                                                  contiki-cc2538dk.a(clock.o)
etimer_reset                                      contiki-cc2538dk.a(etimer.o)
                                                  contiki-cc2538dk.a(uip-ds6.o)
                                                  contiki-cc2538dk.a(ctimer.o)
etimer_restart                                    contiki-cc2538dk.a(etimer.o)
                                                  contiki-cc2538dk.a(ctimer.o)
etimer_set                                        contiki-cc2538dk.a(etimer.o)
                                                  contiki-cc2538dk.a(uip-ds6.o)
                                                  contiki-cc2538dk.a(tcpip.o)
                                                  contiki-cc2538dk.a(ctimer.o)
                                                  dummysensor.co
etimer_start_time                                 contiki-cc2538dk.a(etimer.o)
etimer_stop                                       contiki-cc2538dk.a(etimer.o)
                                                  contiki-cc2538dk.a(ctimer.o)
format_str                                        contiki-cc2538dk.a(strformat.o)
format_str_v                                      contiki-cc2538dk.a(strformat.o)
                                                  contiki-cc2538dk.a(dbg-printf.o)
frag_sender                                       contiki-cc2538dk.a(sicslowpan.o)
frame802154_create                                contiki-cc2538dk.a(frame802154.o)
                                                  contiki-cc2538dk.a(framer-802154.o)
frame802154_hdrlen                                contiki-cc2538dk.a(frame802154.o)
                                                  contiki-cc2538dk.a(framer-802154.o)
frame802154_parse                                 contiki-cc2538dk.a(frame802154.o)
                                                  contiki-cc2538dk.a(framer-802154.o)
framer_802154                                     contiki-cc2538dk.a(framer-802154.o)
                                                  contiki-cc2538dk.a(contikimac.o)
                                                  contiki-cc2538dk.a(framer.o)
                                                  contiki-cc2538dk.a(sicslowpan.o)
framer_canonical_create_and_secure                contiki-cc2538dk.a(framer.o)
                                                  contiki-cc2538dk.a(framer-802154.o)
get_match_length                                  contiki-cc2538dk.a(uip-ds6.o)
gpio_init                                         contiki-cc2538dk.a(gpio.o)
                                                  contiki-cc2538dk.a(contiki-main.o)
gpio_port_a_isr                                   contiki-cc2538dk.a(gpio.o)
                                                  obj_cc2538dk/startup-gcc.o
gpio_port_b_isr                                   contiki-cc2538dk.a(gpio.o)
                                                  obj_cc2538dk/startup-gcc.o
gpio_port_c_isr                                   contiki-cc2538dk.a(gpio.o)
                                                  obj_cc2538dk/startup-gcc.o
gpio_port_d_isr                                   contiki-cc2538dk.a(gpio.o)
                                                  obj_cc2538dk/startup-gcc.o
gpio_register_callback                            contiki-cc2538dk.a(gpio.o)
                                                  contiki-cc2538dk.a(button-sensor.o)
icmp6_new                                         contiki-cc2538dk.a(tcpip.o)
ieee_addr_cpy_to                                  contiki-cc2538dk.a(ieee-addr.o)
                                                  contiki-cc2538dk.a(contiki-main.o)
instance_table                                    contiki-cc2538dk.a(rpl-dag.o)
                                                  contiki-cc2538dk.a(rpl-icmp6.o)
                                                  contiki-cc2538dk.a(rpl.o)
ioc_init                                          contiki-cc2538dk.a(ioc.o)
                                                  contiki-cc2538dk.a(contiki-main.o)
ioc_set_over                                      contiki-cc2538dk.a(ioc.o)
                                                  contiki-cc2538dk.a(uart.o)
                                                  contiki-cc2538dk.a(als-sensor.o)
                                                  contiki-cc2538dk.a(button-sensor.o)
ioc_set_sel                                       contiki-cc2538dk.a(ioc.o)
                                                  contiki-cc2538dk.a(uart.o)
leds_arch_get                                     contiki-cc2538dk.a(leds-arch.o)
                                                  contiki-cc2538dk.a(leds.o)
leds_arch_init                                    contiki-cc2538dk.a(leds-arch.o)
                                                  contiki-cc2538dk.a(leds.o)
leds_arch_set                                     contiki-cc2538dk.a(leds-arch.o)
                                                  contiki-cc2538dk.a(leds.o)
leds_blink                                        contiki-cc2538dk.a(leds.o)
leds_get                                          contiki-cc2538dk.a(leds.o)
leds_init                                         contiki-cc2538dk.a(leds.o)
                                                  contiki-cc2538dk.a(contiki-main.o)
                                                  dummysensor.co
leds_off                                          contiki-cc2538dk.a(leds.o)
                                                  contiki-cc2538dk.a(contiki-main.o)
                                                  dummysensor.co
leds_on                                           contiki-cc2538dk.a(leds.o)
                                                  contiki-cc2538dk.a(contiki-main.o)
                                                  dummysensor.co
leds_set                                          contiki-cc2538dk.a(leds.o)
leds_toggle                                       contiki-cc2538dk.a(leds.o)
linkaddr_cmp                                      contiki-cc2538dk.a(linkaddr.o)
                                                  contiki-cc2538dk.a(mac-sequence.o)
                                                  contiki-cc2538dk.a(uip-ds6-nbr.o)
                                                  contiki-cc2538dk.a(contikimac.o)
                                                  contiki-cc2538dk.a(csma.o)
                                                  contiki-cc2538dk.a(packetbuf.o)
                                                  contiki-cc2538dk.a(nbr-table.o)
                                                  contiki-cc2538dk.a(sicslowpan.o)
linkaddr_copy                                     contiki-cc2538dk.a(linkaddr.o)
                                                  contiki-cc2538dk.a(mac-sequence.o)
                                                  contiki-cc2538dk.a(frame802154.o)
                                                  contiki-cc2538dk.a(csma.o)
                                                  contiki-cc2538dk.a(framer-802154.o)
                                                  contiki-cc2538dk.a(packetbuf.o)
                                                  contiki-cc2538dk.a(nbr-table.o)
                                                  contiki-cc2538dk.a(sicslowpan.o)
linkaddr_node_addr                                contiki-cc2538dk.a(linkaddr.o)
                                                  contiki-cc2538dk.a(contikimac.o)
                                                  contiki-cc2538dk.a(framer-802154.o)
                                                  contiki-cc2538dk.a(contiki-main.o)
linkaddr_null                                     contiki-cc2538dk.a(linkaddr.o)
                                                  contiki-cc2538dk.a(uip-ds6-nbr.o)
                                                  contiki-cc2538dk.a(frame802154.o)
                                                  contiki-cc2538dk.a(packetbuf.o)
                                                  contiki-cc2538dk.a(nbr-table.o)
                                                  contiki-cc2538dk.a(sicslowpan.o)
linkaddr_set_node_addr                            contiki-cc2538dk.a(linkaddr.o)
list_add                                          contiki-cc2538dk.a(list.o)
                                                  contiki-cc2538dk.a(uip-ds6-route.o)
                                                  contiki-cc2538dk.a(uip-icmp6.o)
                                                  contiki-cc2538dk.a(csma.o)
                                                  contiki-cc2538dk.a(nbr-table.o)
                                                  contiki-cc2538dk.a(ctimer.o)
list_chop                                         contiki-cc2538dk.a(list.o)
list_copy                                         contiki-cc2538dk.a(list.o)
list_head                                         contiki-cc2538dk.a(list.o)
                                                  contiki-cc2538dk.a(uip-ds6-route.o)
                                                  contiki-cc2538dk.a(uip-icmp6.o)
                                                  contiki-cc2538dk.a(csma.o)
                                                  contiki-cc2538dk.a(nbr-table.o)
                                                  contiki-cc2538dk.a(ctimer.o)
list_init                                         contiki-cc2538dk.a(list.o)
                                                  contiki-cc2538dk.a(uip-ds6-route.o)
                                                  contiki-cc2538dk.a(csma.o)
                                                  contiki-cc2538dk.a(ctimer.o)
list_insert                                       contiki-cc2538dk.a(list.o)
list_item_next                                    contiki-cc2538dk.a(list.o)
                                                  contiki-cc2538dk.a(uip-ds6-route.o)
                                                  contiki-cc2538dk.a(uip-icmp6.o)
                                                  contiki-cc2538dk.a(contikimac.o)
                                                  contiki-cc2538dk.a(csma.o)
                                                  contiki-cc2538dk.a(nbr-table.o)
list_length                                       contiki-cc2538dk.a(list.o)
                                                  contiki-cc2538dk.a(uip-ds6-route.o)
                                                  contiki-cc2538dk.a(csma.o)
list_pop                                          contiki-cc2538dk.a(list.o)
list_push                                         contiki-cc2538dk.a(list.o)
                                                  contiki-cc2538dk.a(uip-ds6-route.o)
list_remove                                       contiki-cc2538dk.a(list.o)
                                                  contiki-cc2538dk.a(uip-ds6-route.o)
                                                  contiki-cc2538dk.a(uip-icmp6.o)
                                                  contiki-cc2538dk.a(csma.o)
                                                  contiki-cc2538dk.a(nbr-table.o)
                                                  contiki-cc2538dk.a(ctimer.o)
list_tail                                         contiki-cc2538dk.a(list.o)
                                                  contiki-cc2538dk.a(uip-ds6-route.o)
llprefix                                          contiki-cc2538dk.a(sicslowpan.o)
lpm_enter                                         contiki-cc2538dk.a(lpm.o)
                                                  contiki-cc2538dk.a(contiki-main.o)
lpm_exit                                          contiki-cc2538dk.a(lpm.o)
                                                  contiki-cc2538dk.a(gpio.o)
                                                  contiki-cc2538dk.a(rtimer-arch.o)
lpm_init                                          contiki-cc2538dk.a(lpm.o)
                                                  contiki-cc2538dk.a(contiki-main.o)
lpm_register_peripheral                           contiki-cc2538dk.a(lpm.o)
                                                  contiki-cc2538dk.a(crypto.o)
                                                  contiki-cc2538dk.a(uart.o)
lpm_set_max_pm                                    contiki-cc2538dk.a(lpm.o)
mac_call_sent_callback                            contiki-cc2538dk.a(mac.o)
                                                  contiki-cc2538dk.a(contikimac.o)
                                                  contiki-cc2538dk.a(csma.o)
mac_sequence_is_duplicate                         contiki-cc2538dk.a(mac-sequence.o)
                                                  contiki-cc2538dk.a(contikimac.o)
mac_sequence_register_seqno                       contiki-cc2538dk.a(mac-sequence.o)
                                                  contiki-cc2538dk.a(contikimac.o)
main                                              contiki-cc2538dk.a(contiki-main.o)
                                                  obj_cc2538dk/startup-gcc.o
memb_alloc                                        contiki-cc2538dk.a(memb.o)
                                                  contiki-cc2538dk.a(uip-ds6-route.o)
                                                  contiki-cc2538dk.a(csma.o)
                                                  contiki-cc2538dk.a(nbr-table.o)
                                                  contiki-cc2538dk.a(queuebuf.o)
memb_free                                         contiki-cc2538dk.a(memb.o)
                                                  contiki-cc2538dk.a(uip-ds6-route.o)
                                                  contiki-cc2538dk.a(csma.o)
                                                  contiki-cc2538dk.a(queuebuf.o)
memb_init                                         contiki-cc2538dk.a(memb.o)
                                                  contiki-cc2538dk.a(uip-ds6-route.o)
                                                  contiki-cc2538dk.a(csma.o)
                                                  contiki-cc2538dk.a(queuebuf.o)
memb_inmemb                                       contiki-cc2538dk.a(memb.o)
                                                  contiki-cc2538dk.a(queuebuf.o)
memb_numfree                                      contiki-cc2538dk.a(memb.o)
                                                  contiki-cc2538dk.a(queuebuf.o)
memcmp                                            /usr/lib/gcc/arm-none-eabi/4.8/../../../arm-none-eabi/lib/armv7-m/libc.a(lib_a-memcmp.o)
                                                  contiki-cc2538dk.a(rpl-icmp6.o)
                                                  contiki-cc2538dk.a(uip-ds6-nbr.o)
                                                  contiki-cc2538dk.a(uip-ds6-route.o)
                                                  contiki-cc2538dk.a(uip-ds6.o)
                                                  contiki-cc2538dk.a(linkaddr.o)
                                                  contiki-cc2538dk.a(rpl.o)
                                                  contiki-cc2538dk.a(rpl-dag.o)
                                                  contiki-cc2538dk.a(sicslowpan.o)
                                                  contiki-cc2538dk.a(uip-nd6.o)
                                                  contiki-cc2538dk.a(uip6.o)
memcpy                                            /usr/lib/gcc/arm-none-eabi/4.8/../../../arm-none-eabi/lib/armv7-m/libc.a(lib_a-memcpy.o)
                                                  contiki-cc2538dk.a(rpl-icmp6.o)
                                                  contiki-cc2538dk.a(uip-udp-packet.)
                                                  contiki-cc2538dk.a(packetbuf.o)
                                                  contiki-cc2538dk.a(rpl-dag.o)
                                                  contiki-cc2538dk.a(simple-udp.o)
                                                  contiki-cc2538dk.a(sicslowpan.o)
                                                  contiki-cc2538dk.a(uip6.o)
memmove                                           /usr/lib/gcc/arm-none-eabi/4.8/../../../arm-none-eabi/lib/armv7-m/libc.a(lib_a-memmove.o)
                                                  contiki-cc2538dk.a(uip-icmp6.o)
                                                  contiki-cc2538dk.a(rpl-ext-header.)
                                                  contiki-cc2538dk.a(sicslowpan.o)
                                                  contiki-cc2538dk.a(uip6.o)
memset                                            /usr/lib/gcc/arm-none-eabi/4.8/../../../arm-none-eabi/lib/armv7-m/libc.a(lib_a-memset.o)
                                                  contiki-cc2538dk.a(rpl-icmp6.o)
                                                  contiki-cc2538dk.a(uip-ds6-route.o)
                                                  contiki-cc2538dk.a(uip-ds6.o)
                                                  contiki-cc2538dk.a(memb.o)
                                                  contiki-cc2538dk.a(frame802154.o)
                                                  contiki-cc2538dk.a(framer-802154.o)
                                                  contiki-cc2538dk.a(nbr-table.o)
                                                  contiki-cc2538dk.a(rpl-dag.o)
                                                  contiki-cc2538dk.a(sicslowpan.o)
                                                  contiki-cc2538dk.a(uip-nd6.o)
                                                  contiki-cc2538dk.a(uip6.o)
                                                  contiki-cc2538dk.a(udma.o)
                                                  contiki-cc2538dk.a(gpio.o)
nbr_table_add_lladdr                              contiki-cc2538dk.a(nbr-table.o)
                                                  contiki-cc2538dk.a(uip-ds6-nbr.o)
                                                  contiki-cc2538dk.a(uip-ds6-route.o)
                                                  contiki-cc2538dk.a(rpl-dag.o)
nbr_table_get_from_lladdr                         contiki-cc2538dk.a(nbr-table.o)
                                                  contiki-cc2538dk.a(uip-ds6-nbr.o)
                                                  contiki-cc2538dk.a(uip-ds6-route.o)
                                                  contiki-cc2538dk.a(rpl-dag.o)
nbr_table_get_lladdr                              contiki-cc2538dk.a(nbr-table.o)
                                                  contiki-cc2538dk.a(uip-ds6-nbr.o)
                                                  contiki-cc2538dk.a(uip-ds6-route.o)
                                                  contiki-cc2538dk.a(rpl-dag.o)
nbr_table_head                                    contiki-cc2538dk.a(nbr-table.o)
                                                  contiki-cc2538dk.a(uip-ds6-nbr.o)
                                                  contiki-cc2538dk.a(rpl-timers.o)
                                                  contiki-cc2538dk.a(rpl-dag.o)
nbr_table_lock                                    contiki-cc2538dk.a(nbr-table.o)
                                                  contiki-cc2538dk.a(rpl-dag.o)
nbr_table_next                                    contiki-cc2538dk.a(nbr-table.o)
                                                  contiki-cc2538dk.a(uip-ds6-nbr.o)
                                                  contiki-cc2538dk.a(rpl-timers.o)
                                                  contiki-cc2538dk.a(rpl-dag.o)
nbr_table_register                                contiki-cc2538dk.a(nbr-table.o)
                                                  contiki-cc2538dk.a(uip-ds6-nbr.o)
                                                  contiki-cc2538dk.a(uip-ds6-route.o)
                                                  contiki-cc2538dk.a(rpl-dag.o)
nbr_table_remove                                  contiki-cc2538dk.a(nbr-table.o)
                                                  contiki-cc2538dk.a(uip-ds6-nbr.o)
                                                  contiki-cc2538dk.a(uip-ds6-route.o)
                                                  contiki-cc2538dk.a(rpl-dag.o)
nbr_table_unlock                                  contiki-cc2538dk.a(nbr-table.o)
                                                  contiki-cc2538dk.a(rpl-dag.o)
netstack_init                                     contiki-cc2538dk.a(netstack.o)
                                                  contiki-cc2538dk.a(contiki-main.o)
nmi_handler                                       obj_cc2538dk/startup-gcc.o
notify                                            contiki-cc2538dk.a(gpio.o)
nullsec_driver                                    contiki-cc2538dk.a(nullsec.o)
                                                  contiki-cc2538dk.a(framer.o)
                                                  contiki-cc2538dk.a(csma.o)
                                                  contiki-cc2538dk.a(sicslowpan.o)
nvic_init                                         contiki-cc2538dk.a(nvic.o)
                                                  contiki-cc2538dk.a(contiki-main.o)
nvic_interrupt_disable                            contiki-cc2538dk.a(nvic.o)
                                                  contiki-cc2538dk.a(crypto.o)
                                                  contiki-cc2538dk.a(rtimer-arch.o)
nvic_interrupt_en_restore                         contiki-cc2538dk.a(nvic.o)
nvic_interrupt_en_save                            contiki-cc2538dk.a(nvic.o)
nvic_interrupt_enable                             contiki-cc2538dk.a(nvic.o)
                                                  contiki-cc2538dk.a(udma.o)
                                                  contiki-cc2538dk.a(cc2538-rf.o)
                                                  contiki-cc2538dk.a(uart.o)
                                                  contiki-cc2538dk.a(rtimer-arch.o)
                                                  contiki-cc2538dk.a(button-sensor.o)
nvic_interrupt_pend                               contiki-cc2538dk.a(nvic.o)
nvic_interrupt_unpend                             contiki-cc2538dk.a(nvic.o)
                                                  contiki-cc2538dk.a(crypto.o)
                                                  contiki-cc2538dk.a(rtimer-arch.o)
packetbuf_addr                                    contiki-cc2538dk.a(packetbuf.o)
                                                  contiki-cc2538dk.a(mac-sequence.o)
                                                  contiki-cc2538dk.a(rpl-icmp6.o)
                                                  contiki-cc2538dk.a(uip-ds6-nbr.o)
                                                  contiki-cc2538dk.a(contikimac.o)
                                                  contiki-cc2538dk.a(csma.o)
                                                  contiki-cc2538dk.a(framer-802154.o)
                                                  contiki-cc2538dk.a(rpl-ext-header.)
                                                  contiki-cc2538dk.a(sicslowpan.o)
packetbuf_addrs                                   contiki-cc2538dk.a(packetbuf.o)
packetbuf_attr                                    contiki-cc2538dk.a(packetbuf.o)
                                                  contiki-cc2538dk.a(mac-sequence.o)
                                                  contiki-cc2538dk.a(contikimac.o)
                                                  contiki-cc2538dk.a(csma.o)
                                                  contiki-cc2538dk.a(framer-802154.o)
                                                  contiki-cc2538dk.a(sicslowpan.o)
packetbuf_attr_clear                              contiki-cc2538dk.a(packetbuf.o)
packetbuf_attr_copyfrom                           contiki-cc2538dk.a(packetbuf.o)
                                                  contiki-cc2538dk.a(queuebuf.o)
packetbuf_attr_copyto                             contiki-cc2538dk.a(packetbuf.o)
                                                  contiki-cc2538dk.a(queuebuf.o)
packetbuf_attrs                                   contiki-cc2538dk.a(packetbuf.o)
packetbuf_clear                                   contiki-cc2538dk.a(packetbuf.o)
                                                  contiki-cc2538dk.a(sicslowpan.o)
                                                  contiki-cc2538dk.a(cc2538-rf.o)
packetbuf_clear_hdr                               contiki-cc2538dk.a(packetbuf.o)
packetbuf_compact                                 contiki-cc2538dk.a(packetbuf.o)
                                                  contiki-cc2538dk.a(framer.o)
packetbuf_copyfrom                                contiki-cc2538dk.a(packetbuf.o)
                                                  contiki-cc2538dk.a(queuebuf.o)
packetbuf_copyto                                  contiki-cc2538dk.a(packetbuf.o)
                                                  contiki-cc2538dk.a(queuebuf.o)
packetbuf_copyto_hdr                              contiki-cc2538dk.a(packetbuf.o)
packetbuf_datalen                                 contiki-cc2538dk.a(packetbuf.o)
                                                  contiki-cc2538dk.a(contikimac.o)
                                                  contiki-cc2538dk.a(framer-802154.o)
                                                  contiki-cc2538dk.a(sicslowpan.o)
packetbuf_dataptr                                 contiki-cc2538dk.a(packetbuf.o)
                                                  contiki-cc2538dk.a(framer-802154.o)
                                                  contiki-cc2538dk.a(sicslowpan.o)
                                                  contiki-cc2538dk.a(cc2538-rf.o)
packetbuf_hdr_remove                              contiki-cc2538dk.a(packetbuf.o)
packetbuf_hdralloc                                contiki-cc2538dk.a(packetbuf.o)
                                                  contiki-cc2538dk.a(framer-802154.o)
packetbuf_hdrlen                                  contiki-cc2538dk.a(packetbuf.o)
packetbuf_hdrptr                                  contiki-cc2538dk.a(packetbuf.o)
                                                  contiki-cc2538dk.a(contikimac.o)
                                                  contiki-cc2538dk.a(framer-802154.o)
packetbuf_hdrreduce                               contiki-cc2538dk.a(packetbuf.o)
                                                  contiki-cc2538dk.a(framer-802154.o)
packetbuf_holds_broadcast                         contiki-cc2538dk.a(packetbuf.o)
                                                  contiki-cc2538dk.a(contikimac.o)
                                                  contiki-cc2538dk.a(framer-802154.o)
packetbuf_set_addr                                contiki-cc2538dk.a(packetbuf.o)
                                                  contiki-cc2538dk.a(contikimac.o)
                                                  contiki-cc2538dk.a(framer-802154.o)
                                                  contiki-cc2538dk.a(sicslowpan.o)
packetbuf_set_attr                                contiki-cc2538dk.a(packetbuf.o)
                                                  contiki-cc2538dk.a(nullsec.o)
                                                  contiki-cc2538dk.a(contikimac.o)
                                                  contiki-cc2538dk.a(csma.o)
                                                  contiki-cc2538dk.a(framer-802154.o)
                                                  contiki-cc2538dk.a(sicslowpan.o)
                                                  contiki-cc2538dk.a(cc2538-rf.o)
packetbuf_set_datalen                             contiki-cc2538dk.a(packetbuf.o)
                                                  contiki-cc2538dk.a(sicslowpan.o)
                                                  contiki-cc2538dk.a(cc2538-rf.o)
packetbuf_totlen                                  contiki-cc2538dk.a(packetbuf.o)
                                                  contiki-cc2538dk.a(contikimac.o)
printf                                            contiki-cc2538dk.a(dbg-printf.o)
                                                  contiki-cc2538dk.a(uip-debug.o)
                                                  contiki-cc2538dk.a(rpl-dag.o)
                                                  contiki-cc2538dk.a(contiki-main.o)
                                                  dummysensor.co
process_alloc_event                               contiki-cc2538dk.a(process.o)
                                                  contiki-cc2538dk.a(tcpip.o)
                                                  contiki-cc2538dk.a(serial-line.o)
                                                  contiki-cc2538dk.a(sensors.o)
process_current                                   contiki-cc2538dk.a(process.o)
                                                  contiki-cc2538dk.a(simple-udp.o)
                                                  contiki-cc2538dk.a(tcpip.o)
                                                  contiki-cc2538dk.a(serial-line.o)
                                                  contiki-cc2538dk.a(ctimer.o)
                                                  contiki-cc2538dk.a(etimer.o)
process_exit                                      contiki-cc2538dk.a(process.o)
                                                  contiki-cc2538dk.a(autostart.o)
process_init                                      contiki-cc2538dk.a(process.o)
                                                  contiki-cc2538dk.a(contiki-main.o)
process_is_running                                contiki-cc2538dk.a(process.o)
process_list                                      contiki-cc2538dk.a(process.o)
process_nevents                                   contiki-cc2538dk.a(process.o)
                                                  contiki-cc2538dk.a(lpm.o)
process_poll                                      contiki-cc2538dk.a(process.o)
                                                  contiki-cc2538dk.a(serial-line.o)
                                                  contiki-cc2538dk.a(etimer.o)
                                                  contiki-cc2538dk.a(cc2538-rf.o)
                                                  contiki-cc2538dk.a(crypto.o)
                                                  contiki-cc2538dk.a(sensors.o)
process_post                                      contiki-cc2538dk.a(process.o)
                                                  contiki-cc2538dk.a(tcpip.o)
                                                  contiki-cc2538dk.a(serial-line.o)
                                                  contiki-cc2538dk.a(etimer.o)
                                                  contiki-cc2538dk.a(sensors.o)
process_post_synch                                contiki-cc2538dk.a(process.o)
                                                  contiki-cc2538dk.a(tcpip.o)
process_run                                       contiki-cc2538dk.a(process.o)
                                                  contiki-cc2538dk.a(contiki-main.o)
process_start                                     contiki-cc2538dk.a(process.o)
                                                  contiki-cc2538dk.a(simple-udp.o)
                                                  contiki-cc2538dk.a(serial-line.o)
                                                  contiki-cc2538dk.a(ctimer.o)
                                                  contiki-cc2538dk.a(autostart.o)
                                                  contiki-cc2538dk.a(cc2538-rf.o)
                                                  contiki-cc2538dk.a(contiki-main.o)
putchar                                           contiki-cc2538dk.a(dbg.o)
                                                  contiki-cc2538dk.a(uip-debug.o)
puts                                              contiki-cc2538dk.a(dbg.o)
                                                  contiki-cc2538dk.a(rpl-dag.o)
                                                  contiki-cc2538dk.a(contiki-main.o)
                                                  dummysensor.co
queuebuf_addr                                     contiki-cc2538dk.a(queuebuf.o)
queuebuf_attr                                     contiki-cc2538dk.a(queuebuf.o)
                                                  contiki-cc2538dk.a(csma.o)
queuebuf_datalen                                  contiki-cc2538dk.a(queuebuf.o)
queuebuf_dataptr                                  contiki-cc2538dk.a(queuebuf.o)
queuebuf_debug_print                              contiki-cc2538dk.a(queuebuf.o)
queuebuf_free                                     contiki-cc2538dk.a(queuebuf.o)
                                                  contiki-cc2538dk.a(csma.o)
                                                  contiki-cc2538dk.a(sicslowpan.o)
queuebuf_init                                     contiki-cc2538dk.a(queuebuf.o)
                                                  contiki-cc2538dk.a(contiki-main.o)
queuebuf_new_from_packetbuf                       contiki-cc2538dk.a(queuebuf.o)
                                                  contiki-cc2538dk.a(csma.o)
                                                  contiki-cc2538dk.a(sicslowpan.o)
queuebuf_numfree                                  contiki-cc2538dk.a(queuebuf.o)
                                                  contiki-cc2538dk.a(sicslowpan.o)
queuebuf_to_packetbuf                             contiki-cc2538dk.a(queuebuf.o)
                                                  contiki-cc2538dk.a(contikimac.o)
                                                  contiki-cc2538dk.a(sicslowpan.o)
queuebuf_update_attr_from_packetbuf               contiki-cc2538dk.a(queuebuf.o)
                                                  contiki-cc2538dk.a(csma.o)
queuebuf_update_from_packetbuf                    contiki-cc2538dk.a(queuebuf.o)
                                                  contiki-cc2538dk.a(contikimac.o)
random_init                                       contiki-cc2538dk.a(random.o)
                                                  contiki-cc2538dk.a(contiki-main.o)
random_rand                                       contiki-cc2538dk.a(random.o)
                                                  contiki-cc2538dk.a(uip-ds6.o)
                                                  contiki-cc2538dk.a(csma.o)
                                                  contiki-cc2538dk.a(framer-802154.o)
                                                  contiki-cc2538dk.a(rpl-timers.o)
                                                  dummysensor.co
remove_ext_hdr                                    contiki-cc2538dk.a(uip6.o)
reset_handler                                     obj_cc2538dk/startup-gcc.o
rime_sniffer_add                                  contiki-cc2538dk.a(sicslowpan.o)
rime_sniffer_remove                               contiki-cc2538dk.a(sicslowpan.o)
ringbuf_elements                                  contiki-cc2538dk.a(ringbuf.o)
ringbuf_get                                       contiki-cc2538dk.a(ringbuf.o)
                                                  contiki-cc2538dk.a(serial-line.o)
ringbuf_init                                      contiki-cc2538dk.a(ringbuf.o)
                                                  contiki-cc2538dk.a(serial-line.o)
ringbuf_put                                       contiki-cc2538dk.a(ringbuf.o)
                                                  contiki-cc2538dk.a(serial-line.o)
ringbuf_size                                      contiki-cc2538dk.a(ringbuf.o)
rpl_add_dag                                       contiki-cc2538dk.a(rpl-dag.o)
rpl_add_parent                                    contiki-cc2538dk.a(rpl-dag.o)
rpl_add_route                                     contiki-cc2538dk.a(rpl.o)
                                                  contiki-cc2538dk.a(rpl-icmp6.o)
rpl_alloc_dag                                     contiki-cc2538dk.a(rpl-dag.o)
rpl_alloc_instance                                contiki-cc2538dk.a(rpl-dag.o)
rpl_cancel_dao                                    contiki-cc2538dk.a(rpl-timers.o)
                                                  contiki-cc2538dk.a(rpl.o)
rpl_dag_init                                      contiki-cc2538dk.a(rpl-dag.o)
                                                  contiki-cc2538dk.a(rpl.o)
rpl_find_of                                       contiki-cc2538dk.a(rpl-dag.o)
rpl_find_parent                                   contiki-cc2538dk.a(rpl-dag.o)
                                                  contiki-cc2538dk.a(rpl-icmp6.o)
                                                  contiki-cc2538dk.a(rpl-ext-header.)
rpl_find_parent_any_dag                           contiki-cc2538dk.a(rpl-dag.o)
                                                  contiki-cc2538dk.a(rpl.o)
rpl_free_dag                                      contiki-cc2538dk.a(rpl-dag.o)
rpl_free_instance                                 contiki-cc2538dk.a(rpl-dag.o)
rpl_get_any_dag                                   contiki-cc2538dk.a(rpl-dag.o)
                                                  contiki-cc2538dk.a(rpl-timers.o)
rpl_get_default_instance                          contiki-cc2538dk.a(rpl-dag.o)
rpl_get_instance                                  contiki-cc2538dk.a(rpl-dag.o)
                                                  contiki-cc2538dk.a(rpl-icmp6.o)
                                                  contiki-cc2538dk.a(rpl-ext-header.)
rpl_get_mode                                      contiki-cc2538dk.a(rpl.o)
                                                  contiki-cc2538dk.a(rpl-icmp6.o)
                                                  contiki-cc2538dk.a(rpl-timers.o)
rpl_get_nbr                                       contiki-cc2538dk.a(rpl-dag.o)
                                                  contiki-cc2538dk.a(rpl-mrhof.o)
rpl_get_parent                                    contiki-cc2538dk.a(rpl-dag.o)
                                                  contiki-cc2538dk.a(rpl-ext-header.)
rpl_get_parent_ipaddr                             contiki-cc2538dk.a(rpl-dag.o)
                                                  contiki-cc2538dk.a(rpl-icmp6.o)
                                                  contiki-cc2538dk.a(rpl-timers.o)
rpl_get_parent_link_metric                        contiki-cc2538dk.a(rpl-dag.o)
rpl_get_parent_rank                               contiki-cc2538dk.a(rpl-dag.o)
rpl_icmp6_register_handlers                       contiki-cc2538dk.a(rpl-icmp6.o)
                                                  contiki-cc2538dk.a(rpl.o)
rpl_init                                          contiki-cc2538dk.a(rpl.o)
                                                  contiki-cc2538dk.a(tcpip.o)
rpl_insert_header                                 contiki-cc2538dk.a(rpl-ext-header.)
                                                  contiki-cc2538dk.a(uip6.o)
rpl_invert_header                                 contiki-cc2538dk.a(rpl-ext-header.)
                                                  contiki-cc2538dk.a(uip-icmp6.o)
rpl_ipv6_neighbor_callback                        contiki-cc2538dk.a(rpl.o)
                                                  contiki-cc2538dk.a(uip-ds6-nbr.o)
rpl_join_instance                                 contiki-cc2538dk.a(rpl-dag.o)
rpl_link_neighbor_callback                        contiki-cc2538dk.a(rpl.o)
                                                  contiki-cc2538dk.a(uip-ds6-nbr.o)
rpl_local_repair                                  contiki-cc2538dk.a(rpl-dag.o)
rpl_lock_parent                                   contiki-cc2538dk.a(rpl-dag.o)
                                                  contiki-cc2538dk.a(rpl-icmp6.o)
rpl_move_parent                                   contiki-cc2538dk.a(rpl-dag.o)
rpl_mrhof                                         contiki-cc2538dk.a(rpl-mrhof.o)
                                                  contiki-cc2538dk.a(rpl-icmp6.o)
                                                  contiki-cc2538dk.a(rpl.o)
                                                  contiki-cc2538dk.a(rpl-dag.o)
rpl_nullify_parent                                contiki-cc2538dk.a(rpl-dag.o)
rpl_parents                                       contiki-cc2538dk.a(rpl-dag.o)
                                                  contiki-cc2538dk.a(rpl-timers.o)
rpl_print_neighbor_list                           contiki-cc2538dk.a(rpl-dag.o)
rpl_process_dio                                   contiki-cc2538dk.a(rpl-dag.o)
                                                  contiki-cc2538dk.a(rpl-icmp6.o)
rpl_process_parent_event                          contiki-cc2538dk.a(rpl-dag.o)
rpl_purge_routes                                  contiki-cc2538dk.a(rpl.o)
                                                  contiki-cc2538dk.a(rpl-timers.o)
rpl_recalculate_ranks                             contiki-cc2538dk.a(rpl-dag.o)
                                                  contiki-cc2538dk.a(rpl-timers.o)
rpl_remove_header                                 contiki-cc2538dk.a(rpl-ext-header.)
rpl_remove_parent                                 contiki-cc2538dk.a(rpl-dag.o)
rpl_remove_routes                                 contiki-cc2538dk.a(rpl.o)
                                                  contiki-cc2538dk.a(rpl-dag.o)
rpl_remove_routes_by_nexthop                      contiki-cc2538dk.a(rpl.o)
                                                  contiki-cc2538dk.a(rpl-dag.o)
rpl_repair_root                                   contiki-cc2538dk.a(rpl-dag.o)
                                                  contiki-cc2538dk.a(tcpip.o)
rpl_reset_dio_timer                               contiki-cc2538dk.a(rpl-timers.o)
                                                  contiki-cc2538dk.a(rpl-icmp6.o)
                                                  contiki-cc2538dk.a(rpl-ext-header.)
                                                  contiki-cc2538dk.a(rpl-dag.o)
rpl_reset_periodic_timer                          contiki-cc2538dk.a(rpl-timers.o)
                                                  contiki-cc2538dk.a(rpl.o)
rpl_schedule_dao                                  contiki-cc2538dk.a(rpl-timers.o)
                                                  contiki-cc2538dk.a(rpl-dag.o)
rpl_schedule_dao_immediately                      contiki-cc2538dk.a(rpl-timers.o)
                                                  contiki-cc2538dk.a(rpl.o)
rpl_schedule_probing                              contiki-cc2538dk.a(rpl-timers.o)
                                                  contiki-cc2538dk.a(rpl-dag.o)
rpl_select_dag                                    contiki-cc2538dk.a(rpl-dag.o)
rpl_select_parent                                 contiki-cc2538dk.a(rpl-dag.o)
rpl_set_default_instance                          contiki-cc2538dk.a(rpl-dag.o)
rpl_set_default_route                             contiki-cc2538dk.a(rpl-dag.o)
rpl_set_mode                                      contiki-cc2538dk.a(rpl.o)
rpl_set_prefix                                    contiki-cc2538dk.a(rpl-dag.o)
rpl_set_root                                      contiki-cc2538dk.a(rpl-dag.o)
rpl_update_header_empty                           contiki-cc2538dk.a(rpl-ext-header.)
                                                  contiki-cc2538dk.a(uip6.o)
rpl_update_header_final                           contiki-cc2538dk.a(rpl-ext-header.)
                                                  contiki-cc2538dk.a(tcpip.o)
rpl_verify_header                                 contiki-cc2538dk.a(rpl-ext-header.)
                                                  contiki-cc2538dk.a(uip6.o)
rtimer_arch_init                                  contiki-cc2538dk.a(rtimer-arch.o)
                                                  contiki-cc2538dk.a(rtimer.o)
rtimer_arch_next_trigger                          contiki-cc2538dk.a(rtimer-arch.o)
                                                  contiki-cc2538dk.a(lpm.o)
rtimer_arch_now                                   contiki-cc2538dk.a(rtimer-arch.o)
                                                  contiki-cc2538dk.a(contikimac.o)
                                                  contiki-cc2538dk.a(lpm.o)
                                                  contiki-cc2538dk.a(cc2538-rf.o)
                                                  contiki-cc2538dk.a(clock.o)
rtimer_arch_schedule                              contiki-cc2538dk.a(rtimer-arch.o)
                                                  contiki-cc2538dk.a(rtimer.o)
rtimer_init                                       contiki-cc2538dk.a(rtimer.o)
                                                  contiki-cc2538dk.a(contiki-main.o)
rtimer_isr                                        contiki-cc2538dk.a(rtimer-arch.o)
                                                  obj_cc2538dk/startup-gcc.o
rtimer_run_next                                   contiki-cc2538dk.a(rtimer.o)
                                                  contiki-cc2538dk.a(rtimer-arch.o)
rtimer_set                                        contiki-cc2538dk.a(rtimer.o)
                                                  contiki-cc2538dk.a(contikimac.o)
sensors                                           contiki-cc2538dk.a(smartrf-sensors)
                                                  contiki-cc2538dk.a(sensors.o)
sensors_changed                                   contiki-cc2538dk.a(sensors.o)
                                                  contiki-cc2538dk.a(button-sensor.o)
sensors_event                                     contiki-cc2538dk.a(sensors.o)
sensors_find                                      contiki-cc2538dk.a(sensors.o)
sensors_first                                     contiki-cc2538dk.a(sensors.o)
sensors_flags                                     contiki-cc2538dk.a(smartrf-sensors)
                                                  contiki-cc2538dk.a(sensors.o)
sensors_next                                      contiki-cc2538dk.a(sensors.o)
sensors_process                                   contiki-cc2538dk.a(sensors.o)
                                                  contiki-cc2538dk.a(contiki-main.o)
serial_line_event_message                         contiki-cc2538dk.a(serial-line.o)
serial_line_init                                  contiki-cc2538dk.a(serial-line.o)
                                                  contiki-cc2538dk.a(contiki-main.o)
serial_line_input_byte                            contiki-cc2538dk.a(serial-line.o)
                                                  contiki-cc2538dk.a(contiki-main.o)
serial_line_process                               contiki-cc2538dk.a(serial-line.o)
sicslowpan_driver                                 contiki-cc2538dk.a(sicslowpan.o)
                                                  contiki-cc2538dk.a(nullsec.o)
                                                  contiki-cc2538dk.a(netstack.o)
                                                  contiki-cc2538dk.a(contiki-main.o)
sicslowpan_get_last_rssi                          contiki-cc2538dk.a(sicslowpan.o)
sicslowpan_init                                   contiki-cc2538dk.a(sicslowpan.o)
simple_udp_process                                contiki-cc2538dk.a(simple-udp.o)
simple_udp_register                               contiki-cc2538dk.a(simple-udp.o)
                                                  dummysensor.co
simple_udp_send                                   contiki-cc2538dk.a(simple-udp.o)
simple_udp_sendto                                 contiki-cc2538dk.a(simple-udp.o)
                                                  dummysensor.co
simple_udp_sendto_port                            contiki-cc2538dk.a(simple-udp.o)
stimer_elapsed                                    contiki-cc2538dk.a(stimer.o)
stimer_expired                                    contiki-cc2538dk.a(stimer.o)
                                                  contiki-cc2538dk.a(uip-ds6-nbr.o)
                                                  contiki-cc2538dk.a(uip-ds6-route.o)
                                                  contiki-cc2538dk.a(uip-ds6.o)
stimer_remaining                                  contiki-cc2538dk.a(stimer.o)
                                                  contiki-cc2538dk.a(uip-ds6-nbr.o)
stimer_reset                                      contiki-cc2538dk.a(stimer.o)
stimer_restart                                    contiki-cc2538dk.a(stimer.o)
stimer_set                                        contiki-cc2538dk.a(stimer.o)
                                                  contiki-cc2538dk.a(rpl-icmp6.o)
                                                  contiki-cc2538dk.a(uip-ds6-nbr.o)
                                                  contiki-cc2538dk.a(uip-ds6-route.o)
                                                  contiki-cc2538dk.a(uip-ds6.o)
                                                  contiki-cc2538dk.a(tcpip.o)
                                                  contiki-cc2538dk.a(uip-nd6.o)
strlen                                            /usr/lib/gcc/arm-none-eabi/4.8/../../../arm-none-eabi/lib/armv7-m/libc.a(lib_a-strlen.o)
                                                  contiki-cc2538dk.a(sensors.o)
strncmp                                           /usr/lib/gcc/arm-none-eabi/4.8/../../../arm-none-eabi/lib/armv7-m/libc.a(lib_a-strncmp.o)
                                                  contiki-cc2538dk.a(sensors.o)
sys_ctrl_get_io_clock                             contiki-cc2538dk.a(sys-ctrl.o)
sys_ctrl_get_sys_clock                            contiki-cc2538dk.a(sys-ctrl.o)
sys_ctrl_init                                     contiki-cc2538dk.a(sys-ctrl.o)
                                                  contiki-cc2538dk.a(contiki-main.o)
sys_ctrl_reset                                    contiki-cc2538dk.a(sys-ctrl.o)
tcpip_event                                       contiki-cc2538dk.a(tcpip.o)
                                                  contiki-cc2538dk.a(simple-udp.o)
tcpip_icmp6_call                                  contiki-cc2538dk.a(tcpip.o)
                                                  contiki-cc2538dk.a(uip6.o)
tcpip_icmp6_event                                 contiki-cc2538dk.a(tcpip.o)
tcpip_input                                       contiki-cc2538dk.a(tcpip.o)
                                                  contiki-cc2538dk.a(sicslowpan.o)
tcpip_ipv6_output                                 contiki-cc2538dk.a(tcpip.o)
                                                  contiki-cc2538dk.a(uip-udp-packet.)
                                                  contiki-cc2538dk.a(uip-icmp6.o)
tcpip_output                                      contiki-cc2538dk.a(tcpip.o)
tcpip_poll_udp                                    contiki-cc2538dk.a(tcpip.o)
tcpip_process                                     contiki-cc2538dk.a(tcpip.o)
                                                  contiki-cc2538dk.a(contiki-main.o)
tcpip_set_outputfunc                              contiki-cc2538dk.a(tcpip.o)
                                                  contiki-cc2538dk.a(sicslowpan.o)
tcpip_uipcall                                     contiki-cc2538dk.a(tcpip.o)
                                                  contiki-cc2538dk.a(uip6.o)
timer_expired                                     contiki-cc2538dk.a(timer.o)
                                                  contiki-cc2538dk.a(sicslowpan.o)
                                                  contiki-cc2538dk.a(etimer.o)
                                                  contiki-cc2538dk.a(button-sensor.o)
                                                  dummysensor.co
timer_remaining                                   contiki-cc2538dk.a(timer.o)
                                                  dummysensor.co
timer_reset                                       contiki-cc2538dk.a(timer.o)
                                                  contiki-cc2538dk.a(etimer.o)
timer_restart                                     contiki-cc2538dk.a(timer.o)
                                                  contiki-cc2538dk.a(etimer.o)
timer_set                                         contiki-cc2538dk.a(timer.o)
                                                  contiki-cc2538dk.a(sicslowpan.o)
                                                  contiki-cc2538dk.a(etimer.o)
                                                  contiki-cc2538dk.a(button-sensor.o)
                                                  dummysensor.co
uart0_isr                                         contiki-cc2538dk.a(uart.o)
                                                  obj_cc2538dk/startup-gcc.o
uart1_isr                                         contiki-cc2538dk.a(uart.o)
                                                  obj_cc2538dk/startup-gcc.o
uart_init                                         contiki-cc2538dk.a(uart.o)
                                                  contiki-cc2538dk.a(contiki-main.o)
uart_set_input                                    contiki-cc2538dk.a(uart.o)
                                                  contiki-cc2538dk.a(contiki-main.o)
uart_write_byte                                   contiki-cc2538dk.a(uart.o)
                                                  contiki-cc2538dk.a(dbg.o)
udma_channel_disable                              contiki-cc2538dk.a(udma.o)
udma_channel_enable                               contiki-cc2538dk.a(udma.o)
                                                  contiki-cc2538dk.a(cc2538-rf.o)
udma_channel_get_mode                             contiki-cc2538dk.a(udma.o)
                                                  contiki-cc2538dk.a(cc2538-rf.o)
udma_channel_mask_clr                             contiki-cc2538dk.a(udma.o)
udma_channel_mask_set                             contiki-cc2538dk.a(udma.o)
                                                  contiki-cc2538dk.a(cc2538-rf.o)
udma_channel_prio_set_default                     contiki-cc2538dk.a(udma.o)
udma_channel_prio_set_high                        contiki-cc2538dk.a(udma.o)
udma_channel_sw_request                           contiki-cc2538dk.a(udma.o)
                                                  contiki-cc2538dk.a(cc2538-rf.o)
udma_channel_use_alternate                        contiki-cc2538dk.a(udma.o)
udma_channel_use_burst                            contiki-cc2538dk.a(udma.o)
udma_channel_use_primary                          contiki-cc2538dk.a(udma.o)
udma_channel_use_single                           contiki-cc2538dk.a(udma.o)
udma_err_isr                                      contiki-cc2538dk.a(udma.o)
                                                  obj_cc2538dk/startup-gcc.o
udma_init                                         contiki-cc2538dk.a(udma.o)
                                                  contiki-cc2538dk.a(contiki-main.o)
udma_isr                                          contiki-cc2538dk.a(udma.o)
                                                  obj_cc2538dk/startup-gcc.o
udma_set_channel_assignment                       contiki-cc2538dk.a(udma.o)
udma_set_channel_control_word                     contiki-cc2538dk.a(udma.o)
                                                  contiki-cc2538dk.a(cc2538-rf.o)
udma_set_channel_dst                              contiki-cc2538dk.a(udma.o)
                                                  contiki-cc2538dk.a(cc2538-rf.o)
udma_set_channel_src                              contiki-cc2538dk.a(udma.o)
                                                  contiki-cc2538dk.a(cc2538-rf.o)
udp_attach                                        contiki-cc2538dk.a(tcpip.o)
udp_broadcast_new                                 contiki-cc2538dk.a(tcpip.o)
udp_new                                           contiki-cc2538dk.a(tcpip.o)
                                                  contiki-cc2538dk.a(simple-udp.o)
uip_aligned_buf                                   contiki-cc2538dk.a(uip6.o)
                                                  contiki-cc2538dk.a(rpl-icmp6.o)
                                                  contiki-cc2538dk.a(uip-udp-packet.)
                                                  contiki-cc2538dk.a(uip-icmp6.o)
                                                  contiki-cc2538dk.a(rpl-ext-header.)
                                                  contiki-cc2538dk.a(simple-udp.o)
                                                  contiki-cc2538dk.a(tcpip.o)
                                                  contiki-cc2538dk.a(sicslowpan.o)
                                                  contiki-cc2538dk.a(uip-nd6.o)
uip_appdata                                       contiki-cc2538dk.a(uip6.o)
                                                  contiki-cc2538dk.a(simple-udp.o)
uip_chksum                                        contiki-cc2538dk.a(uip6.o)
uip_conn                                          contiki-cc2538dk.a(uip6.o)
                                                  contiki-cc2538dk.a(tcpip.o)
uip_debug_ipaddr_print                            contiki-cc2538dk.a(uip-debug.o)
                                                  contiki-cc2538dk.a(uip-ds6-route.o)
uip_debug_lladdr_print                            contiki-cc2538dk.a(uip-debug.o)
uip_ds6_aaddr_add                                 contiki-cc2538dk.a(uip-ds6.o)
uip_ds6_aaddr_lookup                              contiki-cc2538dk.a(uip-ds6.o)
uip_ds6_aaddr_rm                                  contiki-cc2538dk.a(uip-ds6.o)
uip_ds6_addr_add                                  contiki-cc2538dk.a(uip-ds6.o)
                                                  contiki-cc2538dk.a(rpl-dag.o)
uip_ds6_addr_lookup                               contiki-cc2538dk.a(uip-ds6.o)
                                                  contiki-cc2538dk.a(rpl-dag.o)
                                                  contiki-cc2538dk.a(tcpip.o)
                                                  contiki-cc2538dk.a(uip-nd6.o)
                                                  contiki-cc2538dk.a(uip6.o)
uip_ds6_addr_rm                                   contiki-cc2538dk.a(uip-ds6.o)
                                                  contiki-cc2538dk.a(rpl-dag.o)
uip_ds6_addr_size                                 contiki-cc2538dk.a(uip-ds6.o)
uip_ds6_compute_reachable_time                    contiki-cc2538dk.a(uip-ds6.o)
uip_ds6_defrt_add                                 contiki-cc2538dk.a(uip-ds6-route.o)
                                                  contiki-cc2538dk.a(rpl-dag.o)
uip_ds6_defrt_choose                              contiki-cc2538dk.a(uip-ds6-route.o)
                                                  contiki-cc2538dk.a(tcpip.o)
uip_ds6_defrt_lookup                              contiki-cc2538dk.a(uip-ds6-route.o)
                                                  contiki-cc2538dk.a(uip-ds6-nbr.o)
                                                  contiki-cc2538dk.a(uip-nd6.o)
uip_ds6_defrt_periodic                            contiki-cc2538dk.a(uip-ds6-route.o)
                                                  contiki-cc2538dk.a(uip-ds6.o)
uip_ds6_defrt_rm                                  contiki-cc2538dk.a(uip-ds6-route.o)
                                                  contiki-cc2538dk.a(uip-ds6-nbr.o)
                                                  contiki-cc2538dk.a(rpl-dag.o)
                                                  contiki-cc2538dk.a(uip-nd6.o)
uip_ds6_get_global                                contiki-cc2538dk.a(uip-ds6.o)
uip_ds6_get_least_lifetime_neighbor               contiki-cc2538dk.a(uip-ds6-nbr.o)
uip_ds6_get_link_local                            contiki-cc2538dk.a(uip-ds6.o)
                                                  contiki-cc2538dk.a(rpl-timers.o)
uip_ds6_if                                        contiki-cc2538dk.a(uip-ds6.o)
                                                  contiki-cc2538dk.a(rpl-icmp6.o)
                                                  contiki-cc2538dk.a(uip-ds6-nbr.o)
                                                  contiki-cc2538dk.a(uip-icmp6.o)
                                                  contiki-cc2538dk.a(tcpip.o)
                                                  contiki-cc2538dk.a(uip-nd6.o)
                                                  contiki-cc2538dk.a(uip6.o)
uip_ds6_init                                      contiki-cc2538dk.a(uip-ds6.o)
                                                  contiki-cc2538dk.a(uip6.o)
uip_ds6_is_addr_onlink                            contiki-cc2538dk.a(uip-ds6.o)
                                                  contiki-cc2538dk.a(tcpip.o)
                                                  contiki-cc2538dk.a(uip6.o)
uip_ds6_link_neighbor_callback                    contiki-cc2538dk.a(uip-ds6-nbr.o)
                                                  contiki-cc2538dk.a(sicslowpan.o)
uip_ds6_list_loop                                 contiki-cc2538dk.a(uip-ds6.o)
uip_ds6_maddr_add                                 contiki-cc2538dk.a(uip-ds6.o)
                                                  contiki-cc2538dk.a(rpl.o)
uip_ds6_maddr_lookup                              contiki-cc2538dk.a(uip-ds6.o)
                                                  contiki-cc2538dk.a(uip6.o)
uip_ds6_maddr_rm                                  contiki-cc2538dk.a(uip-ds6.o)
uip_ds6_nbr_add                                   contiki-cc2538dk.a(uip-ds6-nbr.o)
                                                  contiki-cc2538dk.a(rpl-icmp6.o)
                                                  contiki-cc2538dk.a(tcpip.o)
                                                  contiki-cc2538dk.a(uip-nd6.o)
uip_ds6_nbr_get_ipaddr                            contiki-cc2538dk.a(uip-ds6-nbr.o)
uip_ds6_nbr_get_ll                                contiki-cc2538dk.a(uip-ds6-nbr.o)
                                                  contiki-cc2538dk.a(rpl-dag.o)
                                                  contiki-cc2538dk.a(tcpip.o)
                                                  contiki-cc2538dk.a(uip-nd6.o)
uip_ds6_nbr_ipaddr_from_lladdr                    contiki-cc2538dk.a(uip-ds6-nbr.o)
                                                  contiki-cc2538dk.a(uip-ds6-route.o)
                                                  contiki-cc2538dk.a(rpl-dag.o)
uip_ds6_nbr_ll_lookup                             contiki-cc2538dk.a(uip-ds6-nbr.o)
uip_ds6_nbr_lladdr_from_ipaddr                    contiki-cc2538dk.a(uip-ds6-nbr.o)
                                                  contiki-cc2538dk.a(uip-ds6-route.o)
                                                  contiki-cc2538dk.a(rpl-dag.o)
uip_ds6_nbr_lookup                                contiki-cc2538dk.a(uip-ds6-nbr.o)
                                                  contiki-cc2538dk.a(rpl-icmp6.o)
                                                  contiki-cc2538dk.a(uip-ds6-route.o)
                                                  contiki-cc2538dk.a(rpl-dag.o)
                                                  contiki-cc2538dk.a(tcpip.o)
                                                  contiki-cc2538dk.a(uip-nd6.o)
uip_ds6_nbr_num                                   contiki-cc2538dk.a(uip-ds6-nbr.o)
                                                  contiki-cc2538dk.a(rpl-dag.o)
uip_ds6_nbr_rm                                    contiki-cc2538dk.a(uip-ds6-nbr.o)
uip_ds6_neighbor_periodic                         contiki-cc2538dk.a(uip-ds6-nbr.o)
                                                  contiki-cc2538dk.a(uip-ds6.o)
uip_ds6_neighbors_init                            contiki-cc2538dk.a(uip-ds6-nbr.o)
                                                  contiki-cc2538dk.a(uip-ds6.o)
uip_ds6_netif_addr_list_offset                    contiki-cc2538dk.a(uip-ds6.o)
uip_ds6_notification_add                          contiki-cc2538dk.a(uip-ds6-route.o)
uip_ds6_notification_rm                           contiki-cc2538dk.a(uip-ds6-route.o)
uip_ds6_periodic                                  contiki-cc2538dk.a(uip-ds6.o)
                                                  contiki-cc2538dk.a(tcpip.o)
uip_ds6_prefix_add                                contiki-cc2538dk.a(uip-ds6.o)
uip_ds6_prefix_list                               contiki-cc2538dk.a(uip-ds6.o)
uip_ds6_prefix_lookup                             contiki-cc2538dk.a(uip-ds6.o)
uip_ds6_prefix_rm                                 contiki-cc2538dk.a(uip-ds6.o)
uip_ds6_route_add                                 contiki-cc2538dk.a(uip-ds6-route.o)
                                                  contiki-cc2538dk.a(rpl.o)
uip_ds6_route_head                                contiki-cc2538dk.a(uip-ds6-route.o)
                                                  contiki-cc2538dk.a(rpl.o)
uip_ds6_route_init                                contiki-cc2538dk.a(uip-ds6-route.o)
                                                  contiki-cc2538dk.a(uip-ds6.o)
uip_ds6_route_lookup                              contiki-cc2538dk.a(uip-ds6-route.o)
                                                  contiki-cc2538dk.a(rpl-icmp6.o)
                                                  contiki-cc2538dk.a(rpl-ext-header.)
                                                  contiki-cc2538dk.a(tcpip.o)
uip_ds6_route_next                                contiki-cc2538dk.a(uip-ds6-route.o)
                                                  contiki-cc2538dk.a(rpl.o)
uip_ds6_route_nexthop                             contiki-cc2538dk.a(uip-ds6-route.o)
                                                  contiki-cc2538dk.a(rpl-icmp6.o)
                                                  contiki-cc2538dk.a(rpl.o)
                                                  contiki-cc2538dk.a(tcpip.o)
uip_ds6_route_num_routes                          contiki-cc2538dk.a(uip-ds6-route.o)
uip_ds6_route_rm                                  contiki-cc2538dk.a(uip-ds6-route.o)
                                                  contiki-cc2538dk.a(rpl.o)
                                                  contiki-cc2538dk.a(rpl-ext-header.)
                                                  contiki-cc2538dk.a(tcpip.o)
uip_ds6_route_rm_by_nexthop                       contiki-cc2538dk.a(uip-ds6-route.o)
uip_ds6_select_src                                contiki-cc2538dk.a(uip-ds6.o)
                                                  contiki-cc2538dk.a(uip-icmp6.o)
                                                  contiki-cc2538dk.a(uip-nd6.o)
                                                  contiki-cc2538dk.a(uip6.o)
uip_ds6_set_addr_iid                              contiki-cc2538dk.a(uip-ds6.o)
                                                  contiki-cc2538dk.a(rpl.o)
                                                  contiki-cc2538dk.a(rpl-dag.o)
                                                  contiki-cc2538dk.a(sicslowpan.o)
uip_ds6_timer_periodic                            contiki-cc2538dk.a(uip-ds6.o)
                                                  contiki-cc2538dk.a(tcpip.o)
uip_ds6_timer_ra                                  contiki-cc2538dk.a(uip-ds6.o)
uip_ext_bitmap                                    contiki-cc2538dk.a(uip6.o)
uip_ext_len                                       contiki-cc2538dk.a(uip6.o)
                                                  contiki-cc2538dk.a(rpl-icmp6.o)
                                                  contiki-cc2538dk.a(uip-icmp6.o)
                                                  contiki-cc2538dk.a(rpl-ext-header.)
                                                  contiki-cc2538dk.a(tcpip.o)
                                                  contiki-cc2538dk.a(uip-nd6.o)
uip_ext_opt_offset                                contiki-cc2538dk.a(uip6.o)
uip_flags                                         contiki-cc2538dk.a(uip6.o)
                                                  contiki-cc2538dk.a(simple-udp.o)
uip_htonl                                         contiki-cc2538dk.a(uip6.o)
                                                  contiki-cc2538dk.a(uip-icmp6.o)
uip_htons                                         contiki-cc2538dk.a(uip6.o)
uip_icmp6_conns                                   contiki-cc2538dk.a(uip6.o)
                                                  contiki-cc2538dk.a(tcpip.o)
uip_icmp6_echo_reply_callback_add                 contiki-cc2538dk.a(uip-icmp6.o)
uip_icmp6_echo_reply_callback_rm                  contiki-cc2538dk.a(uip-icmp6.o)
uip_icmp6_error_output                            contiki-cc2538dk.a(uip-icmp6.o)
                                                  contiki-cc2538dk.a(uip6.o)
uip_icmp6_init                                    contiki-cc2538dk.a(uip-icmp6.o)
                                                  contiki-cc2538dk.a(uip6.o)
uip_icmp6_input                                   contiki-cc2538dk.a(uip-icmp6.o)
                                                  contiki-cc2538dk.a(uip6.o)
uip_icmp6_register_input_handler                  contiki-cc2538dk.a(uip-icmp6.o)
                                                  contiki-cc2538dk.a(rpl-icmp6.o)
                                                  contiki-cc2538dk.a(uip-nd6.o)
uip_icmp6_send                                    contiki-cc2538dk.a(uip-icmp6.o)
                                                  contiki-cc2538dk.a(rpl-icmp6.o)
uip_icmp6chksum                                   contiki-cc2538dk.a(uip6.o)
                                                  contiki-cc2538dk.a(uip-icmp6.o)
                                                  contiki-cc2538dk.a(uip-nd6.o)
uip_init                                          contiki-cc2538dk.a(uip6.o)
                                                  contiki-cc2538dk.a(tcpip.o)
uip_ipchksum                                      contiki-cc2538dk.a(uip6.o)
uip_len                                           contiki-cc2538dk.a(uip6.o)
                                                  contiki-cc2538dk.a(rpl-icmp6.o)
                                                  contiki-cc2538dk.a(uip-ds6-nbr.o)
                                                  contiki-cc2538dk.a(uip-icmp6.o)
                                                  contiki-cc2538dk.a(rpl-ext-header.)
                                                  contiki-cc2538dk.a(simple-udp.o)
                                                  contiki-cc2538dk.a(tcpip.o)
                                                  contiki-cc2538dk.a(sicslowpan.o)
                                                  contiki-cc2538dk.a(uip-nd6.o)
uip_lladdr                                        contiki-cc2538dk.a(uip6.o)
                                                  contiki-cc2538dk.a(uip-ds6.o)
                                                  contiki-cc2538dk.a(rpl-dag.o)
                                                  contiki-cc2538dk.a(sicslowpan.o)
                                                  contiki-cc2538dk.a(uip-nd6.o)
                                                  contiki-cc2538dk.a(contiki-main.o)
uip_nd6_init                                      contiki-cc2538dk.a(uip-nd6.o)
                                                  contiki-cc2538dk.a(uip6.o)
uip_nd6_ns_output                                 contiki-cc2538dk.a(uip-nd6.o)
                                                  contiki-cc2538dk.a(uip-ds6-nbr.o)
                                                  contiki-cc2538dk.a(tcpip.o)
uip_next_hdr                                      contiki-cc2538dk.a(uip6.o)
uip_process                                       contiki-cc2538dk.a(uip6.o)
                                                  contiki-cc2538dk.a(uip-udp-packet.)
                                                  contiki-cc2538dk.a(tcpip.o)
uip_sappdata                                      contiki-cc2538dk.a(uip6.o)
uip_send                                          contiki-cc2538dk.a(uip6.o)
uip_slen                                          contiki-cc2538dk.a(uip6.o)
                                                  contiki-cc2538dk.a(uip-udp-packet.)
uip_udp_conn                                      contiki-cc2538dk.a(uip6.o)
                                                  contiki-cc2538dk.a(uip-udp-packet.)
                                                  contiki-cc2538dk.a(tcpip.o)
uip_udp_conns                                     contiki-cc2538dk.a(uip6.o)
                                                  contiki-cc2538dk.a(tcpip.o)
uip_udp_new                                       contiki-cc2538dk.a(uip6.o)
                                                  contiki-cc2538dk.a(tcpip.o)
uip_udp_packet_send                               contiki-cc2538dk.a(uip-udp-packet.)
uip_udp_packet_sendto                             contiki-cc2538dk.a(uip-udp-packet.)
                                                  contiki-cc2538dk.a(simple-udp.o)
uip_udpchksum                                     contiki-cc2538dk.a(uip6.o)
unc_ctxconf                                       contiki-cc2538dk.a(sicslowpan.o)
unc_llconf                                        contiki-cc2538dk.a(sicslowpan.o)
unc_mxconf                                        contiki-cc2538dk.a(sicslowpan.o)
usb_isr                                           obj_cc2538dk/startup-gcc.o
vdd3_sensor                                       contiki-cc2538dk.a(vdd3-sensor.o)
                                                  contiki-cc2538dk.a(smartrf-sensors)
vectors                                           obj_cc2538dk/startup-gcc.o
watchdog_init                                     contiki-cc2538dk.a(watchdog.o)
                                                  contiki-cc2538dk.a(contiki-main.o)
watchdog_periodic                                 contiki-cc2538dk.a(watchdog.o)
                                                  contiki-cc2538dk.a(contikimac.o)
                                                  contiki-cc2538dk.a(sicslowpan.o)
                                                  contiki-cc2538dk.a(contiki-main.o)
                                                  dummysensor.co
watchdog_reboot                                   contiki-cc2538dk.a(watchdog.o)
watchdog_start                                    contiki-cc2538dk.a(watchdog.o)
                                                  contiki-cc2538dk.a(contiki-main.o)
