Archive member included to satisfy reference by file (symbol)

contiki-cc2538dk.a(er-coap-engine.)
                              obj_cc2538dk/res-leds.o (coap_rest_implementation)
contiki-cc2538dk.a(er-coap-transac)
                              contiki-cc2538dk.a(er-coap-engine.) (coap_register_as_transaction_handler)
contiki-cc2538dk.a(er-coap-observe)
                              contiki-cc2538dk.a(er-coap-transac) (coap_remove_observer_by_client)
contiki-cc2538dk.a(er-coap-res-wel)
                              contiki-cc2538dk.a(er-coap-engine.) (res_well_known_core)
contiki-cc2538dk.a(rest-engine.o)
                              borderest.co (rest_init_engine)
contiki-cc2538dk.a(leds.o)    borderest.co (leds_init)
contiki-cc2538dk.a(leds-arch.o)
                              contiki-cc2538dk.a(leds.o) (leds_arch_init)
contiki-cc2538dk.a(contiki-main.o)
                              obj_cc2538dk/startup-gcc.o (main)
contiki-cc2538dk.a(sensors.o)
                              borderest.co (sensors_event)
contiki-cc2538dk.a(smartrf-sensors)
                              contiki-cc2538dk.a(sensors.o) (sensors_flags)
contiki-cc2538dk.a(button-sensor.o)
                              contiki-cc2538dk.a(contiki-main.o) (button_sensor_init)
contiki-cc2538dk.a(als-sensor.o)
                              contiki-cc2538dk.a(smartrf-sensors) (als_sensor)
contiki-cc2538dk.a(clock.o)   contiki-cc2538dk.a(contiki-main.o) (clock_init)
contiki-cc2538dk.a(rtimer-arch.o)
                              contiki-cc2538dk.a(clock.o) (rtimer_arch_now)
contiki-cc2538dk.a(uart.o)    contiki-cc2538dk.a(contiki-main.o) (uart_init)
contiki-cc2538dk.a(watchdog.o)
                              contiki-cc2538dk.a(contiki-main.o) (watchdog_init)
contiki-cc2538dk.a(nvic.o)    contiki-cc2538dk.a(contiki-main.o) (nvic_init)
contiki-cc2538dk.a(cpu.o)     contiki-cc2538dk.a(contiki-main.o) (cpu_cpsie)
contiki-cc2538dk.a(sys-ctrl.o)
                              contiki-cc2538dk.a(contiki-main.o) (sys_ctrl_init)
contiki-cc2538dk.a(gpio.o)    contiki-cc2538dk.a(button-sensor.o) (gpio_register_callback)
contiki-cc2538dk.a(ioc.o)     contiki-cc2538dk.a(contiki-main.o) (ioc_init)
contiki-cc2538dk.a(adc.o)     contiki-cc2538dk.a(contiki-main.o) (adc_init)
contiki-cc2538dk.a(crypto.o)  obj_cc2538dk/startup-gcc.o (crypto_isr)
contiki-cc2538dk.a(cc2538-rf.o)
                              obj_cc2538dk/startup-gcc.o (cc2538_rf_rx_tx_isr)
contiki-cc2538dk.a(udma.o)    contiki-cc2538dk.a(contiki-main.o) (udma_init)
contiki-cc2538dk.a(lpm.o)     contiki-cc2538dk.a(rtimer-arch.o) (lpm_exit)
contiki-cc2538dk.a(dbg.o)     borderest.co (putchar)
contiki-cc2538dk.a(ieee-addr.o)
                              contiki-cc2538dk.a(contiki-main.o) (ieee_addr_cpy_to)
contiki-cc2538dk.a(slip-arch.o)
                              obj_cc2538dk/slip-bridge.o (slip_arch_init)
contiki-cc2538dk.a(slip.o)    obj_cc2538dk/slip-bridge.o (slip_set_input_callback)
contiki-cc2538dk.a(cc2538-temp-sen)
                              contiki-cc2538dk.a(smartrf-sensors) (cc2538_temp_sensor)
contiki-cc2538dk.a(vdd3-sensor.o)
                              contiki-cc2538dk.a(smartrf-sensors) (vdd3_sensor)
contiki-cc2538dk.a(dbg-printf.o)
                              obj_cc2538dk/slip-bridge.o (printf)
contiki-cc2538dk.a(dbg-snprintf.o)
                              borderest.co (snprintf)
contiki-cc2538dk.a(strformat.o)
                              contiki-cc2538dk.a(dbg-printf.o) (format_str_v)
contiki-cc2538dk.a(autostart.o)
                              contiki-cc2538dk.a(contiki-main.o) (autostart_start)
contiki-cc2538dk.a(energest.o)
                              contiki-cc2538dk.a(contiki-main.o) (energest_init)
contiki-cc2538dk.a(etimer.o)  contiki-cc2538dk.a(clock.o) (etimer_request_poll)
contiki-cc2538dk.a(ctimer.o)  contiki-cc2538dk.a(contiki-main.o) (ctimer_init)
contiki-cc2538dk.a(process.o)
                              contiki-cc2538dk.a(sensors.o) (process_alloc_event)
contiki-cc2538dk.a(rtimer.o)  contiki-cc2538dk.a(contiki-main.o) (rtimer_init)
contiki-cc2538dk.a(timer.o)   obj_cc2538dk/httpd-simple.o (timer_set)
contiki-cc2538dk.a(serial-line.o)
                              contiki-cc2538dk.a(contiki-main.o) (serial_line_input_byte)
contiki-cc2538dk.a(list.o)    contiki-cc2538dk.a(rest-engine.o) (list_init)
contiki-cc2538dk.a(memb.o)    obj_cc2538dk/httpd-simple.o (memb_init)
contiki-cc2538dk.a(random.o)  contiki-cc2538dk.a(er-coap-transac) (random_rand)
contiki-cc2538dk.a(ringbuf.o)
                              contiki-cc2538dk.a(serial-line.o) (ringbuf_init)
contiki-cc2538dk.a(uip-ds6.o)
                              borderest.co (uip_ds6_if)
contiki-cc2538dk.a(uip-ds6-route.o)
                              contiki-cc2538dk.a(uip-ds6.o) (uip_ds6_route_init)
contiki-cc2538dk.a(uip6.o)    borderest.co (uip_aligned_buf)
contiki-cc2538dk.a(uip-ds6-nbr.o)
                              contiki-cc2538dk.a(uip-ds6.o) (uip_ds6_neighbors_init)
contiki-cc2538dk.a(uip-nd6.o)
                              contiki-cc2538dk.a(uip-ds6-nbr.o) (uip_nd6_ns_output)
contiki-cc2538dk.a(sicslowpan.o)
                              contiki-cc2538dk.a(contiki-main.o) (sicslowpan_driver)
contiki-cc2538dk.a(uip-debug.o)
                              borderest.co (uip_debug_ipaddr_print)
contiki-cc2538dk.a(psock.o)   borderest.co (psock_send)
contiki-cc2538dk.a(tcpip.o)   contiki-cc2538dk.a(sicslowpan.o) (tcpip_set_outputfunc)
contiki-cc2538dk.a(rpl-dag.o)
                              borderest.co (rpl_set_prefix)
contiki-cc2538dk.a(rpl-timers.o)
                              contiki-cc2538dk.a(rpl-dag.o) (rpl_reset_dio_timer)
contiki-cc2538dk.a(rpl-ext-header.)
                              contiki-cc2538dk.a(uip6.o) (rpl_verify_header)
contiki-cc2538dk.a(rpl.o)     contiki-cc2538dk.a(rpl-timers.o) (rpl_get_mode)
contiki-cc2538dk.a(rpl-mrhof.o)
                              contiki-cc2538dk.a(rpl-dag.o) (rpl_mrhof)
contiki-cc2538dk.a(queuebuf.o)
                              contiki-cc2538dk.a(contiki-main.o) (queuebuf_init)
contiki-cc2538dk.a(nbr-table.o)
                              contiki-cc2538dk.a(uip-ds6-route.o) (nbr_table_register)
contiki-cc2538dk.a(packetbuf.o)
                              contiki-cc2538dk.a(queuebuf.o) (packetbuf_copyto)
contiki-cc2538dk.a(netstack.o)
                              contiki-cc2538dk.a(contiki-main.o) (netstack_init)
contiki-cc2538dk.a(linkaddr.o)
                              contiki-cc2538dk.a(sicslowpan.o) (linkaddr_copy)
contiki-cc2538dk.a(framer-802154.o)
                              contiki-cc2538dk.a(sicslowpan.o) (framer_802154)
contiki-cc2538dk.a(csma.o)    borderest.co (csma_driver)
contiki-cc2538dk.a(frame802154.o)
                              contiki-cc2538dk.a(framer-802154.o) (frame802154_hdrlen)
contiki-cc2538dk.a(mac.o)     contiki-cc2538dk.a(csma.o) (mac_call_sent_callback)
contiki-cc2538dk.a(framer.o)  contiki-cc2538dk.a(framer-802154.o) (framer_canonical_create_and_secure)
contiki-cc2538dk.a(contikimac.o)
                              contiki-cc2538dk.a(contiki-main.o) (contikimac_driver)
contiki-cc2538dk.a(nullsec.o)
                              contiki-cc2538dk.a(sicslowpan.o) (nullsec_driver)
contiki-cc2538dk.a(er-coap.o)
                              contiki-cc2538dk.a(er-coap-engine.) (coap_init_connection)
contiki-cc2538dk.a(stimer.o)  contiki-cc2538dk.a(uip-ds6.o) (stimer_set)
contiki-cc2538dk.a(uip-icmp6.o)
                              contiki-cc2538dk.a(uip6.o) (uip_icmp6_input)
contiki-cc2538dk.a(uip-udp-packet.)
                              contiki-cc2538dk.a(er-coap.o) (uip_udp_packet_send)
contiki-cc2538dk.a(rpl-icmp6.o)
                              contiki-cc2538dk.a(rpl-timers.o) (dis_output)
contiki-cc2538dk.a(mac-sequence.o)
                              contiki-cc2538dk.a(contikimac.o) (mac_sequence_is_duplicate)
/usr/lib/gcc/arm-none-eabi/4.8/armv7-m/libgcc.a(_aeabi_uldivmod.o)
                              contiki-cc2538dk.a(strformat.o) (__aeabi_uldivmod)
/usr/lib/gcc/arm-none-eabi/4.8/armv7-m/libgcc.a(bpabi.o)
                              /usr/lib/gcc/arm-none-eabi/4.8/armv7-m/libgcc.a(_aeabi_uldivmod.o) (__gnu_uldivmod_helper)
/usr/lib/gcc/arm-none-eabi/4.8/armv7-m/libgcc.a(_dvmd_tls.o)
                              /usr/lib/gcc/arm-none-eabi/4.8/armv7-m/libgcc.a(_aeabi_uldivmod.o) (__aeabi_ldiv0)
/usr/lib/gcc/arm-none-eabi/4.8/armv7-m/libgcc.a(_divdi3.o)
                              /usr/lib/gcc/arm-none-eabi/4.8/armv7-m/libgcc.a(bpabi.o) (__divdi3)
/usr/lib/gcc/arm-none-eabi/4.8/armv7-m/libgcc.a(_udivdi3.o)
                              /usr/lib/gcc/arm-none-eabi/4.8/armv7-m/libgcc.a(bpabi.o) (__udivdi3)
/usr/lib/gcc/arm-none-eabi/4.8/../../../arm-none-eabi/lib/armv7-m/libc.a(lib_a-atoi.o)
                              obj_cc2538dk/res-hello.o (atoi)
/usr/lib/gcc/arm-none-eabi/4.8/../../../arm-none-eabi/lib/armv7-m/libc.a(lib_a-memchr-stub.o)
                              contiki-cc2538dk.a(er-coap.o) (memchr)
/usr/lib/gcc/arm-none-eabi/4.8/../../../arm-none-eabi/lib/armv7-m/libc.a(lib_a-memcmp.o)
                              obj_cc2538dk/slip-bridge.o (memcmp)
/usr/lib/gcc/arm-none-eabi/4.8/../../../arm-none-eabi/lib/armv7-m/libc.a(lib_a-memcpy.o)
                              obj_cc2538dk/res-hello.o (memcpy)
/usr/lib/gcc/arm-none-eabi/4.8/../../../arm-none-eabi/lib/armv7-m/libc.a(lib_a-memmove.o)
                              contiki-cc2538dk.a(uip6.o) (memmove)
/usr/lib/gcc/arm-none-eabi/4.8/../../../arm-none-eabi/lib/armv7-m/libc.a(lib_a-memset.o)
                              obj_cc2538dk/slip-bridge.o (memset)
/usr/lib/gcc/arm-none-eabi/4.8/../../../arm-none-eabi/lib/armv7-m/libc.a(lib_a-strchr.o)
                              contiki-cc2538dk.a(er-coap.o) (strchr)
/usr/lib/gcc/arm-none-eabi/4.8/../../../arm-none-eabi/lib/armv7-m/libc.a(lib_a-strcpy.o)
                              borderest.co (strcpy)
/usr/lib/gcc/arm-none-eabi/4.8/../../../arm-none-eabi/lib/armv7-m/libc.a(lib_a-strlen.o)
                              borderest.co (strlen)
/usr/lib/gcc/arm-none-eabi/4.8/../../../arm-none-eabi/lib/armv7-m/libc.a(lib_a-strncmp.o)
                              obj_cc2538dk/res-leds.o (strncmp)
/usr/lib/gcc/arm-none-eabi/4.8/../../../arm-none-eabi/lib/armv7-m/libc.a(lib_a-strncpy.o)
                              obj_cc2538dk/httpd-simple.o (strncpy)
/usr/lib/gcc/arm-none-eabi/4.8/../../../arm-none-eabi/lib/armv7-m/libc.a(lib_a-strtol.o)
                              /usr/lib/gcc/arm-none-eabi/4.8/../../../arm-none-eabi/lib/armv7-m/libc.a(lib_a-atoi.o) (_strtol_r)
/usr/lib/gcc/arm-none-eabi/4.8/../../../arm-none-eabi/lib/armv7-m/libc.a(lib_a-ctype_.o)
                              /usr/lib/gcc/arm-none-eabi/4.8/../../../arm-none-eabi/lib/armv7-m/libc.a(lib_a-strtol.o) (__ctype_ptr__)
/usr/lib/gcc/arm-none-eabi/4.8/../../../arm-none-eabi/lib/armv7-m/libc.a(lib_a-impure.o)
                              /usr/lib/gcc/arm-none-eabi/4.8/../../../arm-none-eabi/lib/armv7-m/libc.a(lib_a-strtol.o) (_impure_ptr)

Allocating common symbols
Common symbol       size              file

uip_ds6_timer_ra    0x8               contiki-cc2538dk.a(uip-ds6.o)
uip_ds6_if          0xf8              contiki-cc2538dk.a(uip-ds6.o)
uip_ds6_netif_addr_list_offset
                    0x1               contiki-cc2538dk.a(uip-ds6.o)
uip_len             0x2               contiki-cc2538dk.a(uip6.o)
slip_active         0x1               contiki-cc2538dk.a(slip.o)
uip_ds6_addr_size   0x1               contiki-cc2538dk.a(uip-ds6.o)
uip_sappdata        0x4               contiki-cc2538dk.a(uip6.o)
packetbuf_addrs     0x10              contiki-cc2538dk.a(packetbuf.o)
uip_acc32           0x4               contiki-cc2538dk.a(uip6.o)
uip_ds6_prefix_list
                    0x60              contiki-cc2538dk.a(uip-ds6.o)
frag_sender         0x8               contiki-cc2538dk.a(sicslowpan.o)
uip_lladdr          0x8               contiki-cc2538dk.a(uip6.o)
uip_aligned_buf     0x8c              contiki-cc2538dk.a(uip6.o)
uip_flags           0x1               contiki-cc2538dk.a(uip6.o)
uip_ds6_timer_periodic
                    0x10              contiki-cc2538dk.a(uip-ds6.o)
uip_next_hdr        0x4               contiki-cc2538dk.a(uip6.o)
linkaddr_node_addr  0x8               contiki-cc2538dk.a(linkaddr.o)
default_instance    0x4               contiki-cc2538dk.a(rpl-dag.o)
uip_udp_conn        0x4               contiki-cc2538dk.a(uip6.o)
packetbuf_attrs     0x1e              contiki-cc2538dk.a(packetbuf.o)
instance_table      0x124             contiki-cc2538dk.a(rpl-dag.o)
uip_appdata         0x4               contiki-cc2538dk.a(uip6.o)
uip_conn            0x4               contiki-cc2538dk.a(uip6.o)
tcpip_event         0x1               contiki-cc2538dk.a(tcpip.o)
uip_conns           0x1e0             contiki-cc2538dk.a(uip6.o)
uip_icmp6_conns     0x8               contiki-cc2538dk.a(uip6.o)
uip_listenports     0x10              contiki-cc2538dk.a(uip6.o)
sensors_flags       0x9               contiki-cc2538dk.a(smartrf-sensors)
serial_line_event_message
                    0x1               contiki-cc2538dk.a(serial-line.o)
sensors_event       0x1               contiki-cc2538dk.a(sensors.o)
tcpip_icmp6_event   0x1               contiki-cc2538dk.a(tcpip.o)
uip_slen            0x2               contiki-cc2538dk.a(uip6.o)
uip_udp_conns       0x140             contiki-cc2538dk.a(uip6.o)

Discarded input sections

 .text          0x0000000000000000        0x0 obj_cc2538dk/startup-gcc.o
 .data          0x0000000000000000        0x0 obj_cc2538dk/startup-gcc.o
 .bss           0x0000000000000000        0x0 obj_cc2538dk/startup-gcc.o
 .text          0x0000000000000000        0x0 borderest.co
 .data          0x0000000000000000        0x0 borderest.co
 .bss           0x0000000000000000        0x0 borderest.co
 .text          0x0000000000000000        0x0 obj_cc2538dk/slip-bridge.o
 .data          0x0000000000000000        0x0 obj_cc2538dk/slip-bridge.o
 .bss           0x0000000000000000        0x0 obj_cc2538dk/slip-bridge.o
 .text          0x0000000000000000        0x0 obj_cc2538dk/res-leds.o
 .data          0x0000000000000000        0x0 obj_cc2538dk/res-leds.o
 .bss           0x0000000000000000        0x0 obj_cc2538dk/res-leds.o
 .text          0x0000000000000000        0x0 obj_cc2538dk/res-toggle.o
 .data          0x0000000000000000        0x0 obj_cc2538dk/res-toggle.o
 .bss           0x0000000000000000        0x0 obj_cc2538dk/res-toggle.o
 .text          0x0000000000000000        0x0 obj_cc2538dk/res-hello.o
 .data          0x0000000000000000        0x0 obj_cc2538dk/res-hello.o
 .bss           0x0000000000000000        0x0 obj_cc2538dk/res-hello.o
 .text          0x0000000000000000        0x0 obj_cc2538dk/httpd-simple.o
 .data          0x0000000000000000        0x0 obj_cc2538dk/httpd-simple.o
 .bss           0x0000000000000000        0x0 obj_cc2538dk/httpd-simple.o
 .text          0x0000000000000000        0x0 contiki-cc2538dk.a(er-coap-engine.)
 .data          0x0000000000000000        0x0 contiki-cc2538dk.a(er-coap-engine.)
 .bss           0x0000000000000000        0x0 contiki-cc2538dk.a(er-coap-engine.)
 .text.coap_blocking_request_callback
                0x0000000000000000        0x8 contiki-cc2538dk.a(er-coap-engine.)
 .text.coap_blocking_request
                0x0000000000000000       0xe8 contiki-cc2538dk.a(er-coap-engine.)
 .bss.res_block.8576
                0x0000000000000000        0x4 contiki-cc2538dk.a(er-coap-engine.)
 .bss.block_error.8577
                0x0000000000000000        0x1 contiki-cc2538dk.a(er-coap-engine.)
 .bss.more.8575
                0x0000000000000000        0x1 contiki-cc2538dk.a(er-coap-engine.)
 .text          0x0000000000000000        0x0 contiki-cc2538dk.a(er-coap-transac)
 .data          0x0000000000000000        0x0 contiki-cc2538dk.a(er-coap-transac)
 .bss           0x0000000000000000        0x0 contiki-cc2538dk.a(er-coap-transac)
 .text          0x0000000000000000        0x0 contiki-cc2538dk.a(er-coap-observe)
 .data          0x0000000000000000        0x0 contiki-cc2538dk.a(er-coap-observe)
 .bss           0x0000000000000000        0x0 contiki-cc2538dk.a(er-coap-observe)
 .text          0x0000000000000000        0x0 contiki-cc2538dk.a(er-coap-res-wel)
 .data          0x0000000000000000        0x0 contiki-cc2538dk.a(er-coap-res-wel)
 .bss           0x0000000000000000        0x0 contiki-cc2538dk.a(er-coap-res-wel)
 .text          0x0000000000000000        0x0 contiki-cc2538dk.a(rest-engine.o)
 .data          0x0000000000000000        0x0 contiki-cc2538dk.a(rest-engine.o)
 .bss           0x0000000000000000        0x0 contiki-cc2538dk.a(rest-engine.o)
 .text          0x0000000000000000        0x0 contiki-cc2538dk.a(leds.o)
 .data          0x0000000000000000        0x0 contiki-cc2538dk.a(leds.o)
 .bss           0x0000000000000000        0x0 contiki-cc2538dk.a(leds.o)
 .text.leds_set
                0x0000000000000000        0xc contiki-cc2538dk.a(leds.o)
 .text.leds_blink
                0x0000000000000000       0x28 contiki-cc2538dk.a(leds.o)
 .text          0x0000000000000000        0x0 contiki-cc2538dk.a(leds-arch.o)
 .data          0x0000000000000000        0x0 contiki-cc2538dk.a(leds-arch.o)
 .bss           0x0000000000000000        0x0 contiki-cc2538dk.a(leds-arch.o)
 .text          0x0000000000000000        0x0 contiki-cc2538dk.a(contiki-main.o)
 .data          0x0000000000000000        0x0 contiki-cc2538dk.a(contiki-main.o)
 .bss           0x0000000000000000        0x0 contiki-cc2538dk.a(contiki-main.o)
 .text          0x0000000000000000        0x0 contiki-cc2538dk.a(sensors.o)
 .data          0x0000000000000000        0x0 contiki-cc2538dk.a(sensors.o)
 .bss           0x0000000000000000        0x0 contiki-cc2538dk.a(sensors.o)
 .text.sensors_first
                0x0000000000000000        0xc contiki-cc2538dk.a(sensors.o)
 .text.sensors_next
                0x0000000000000000       0x2c contiki-cc2538dk.a(sensors.o)
 .text.sensors_find
                0x0000000000000000       0x40 contiki-cc2538dk.a(sensors.o)
 .text          0x0000000000000000        0x0 contiki-cc2538dk.a(smartrf-sensors)
 .data          0x0000000000000000        0x0 contiki-cc2538dk.a(smartrf-sensors)
 .bss           0x0000000000000000        0x0 contiki-cc2538dk.a(smartrf-sensors)
 .text          0x0000000000000000        0x0 contiki-cc2538dk.a(button-sensor.o)
 .data          0x0000000000000000        0x0 contiki-cc2538dk.a(button-sensor.o)
 .bss           0x0000000000000000        0x0 contiki-cc2538dk.a(button-sensor.o)
 .text          0x0000000000000000        0x0 contiki-cc2538dk.a(als-sensor.o)
 .data          0x0000000000000000        0x0 contiki-cc2538dk.a(als-sensor.o)
 .bss           0x0000000000000000        0x0 contiki-cc2538dk.a(als-sensor.o)
 .text          0x0000000000000000        0x0 contiki-cc2538dk.a(clock.o)
 .data          0x0000000000000000        0x0 contiki-cc2538dk.a(clock.o)
 .bss           0x0000000000000000        0x0 contiki-cc2538dk.a(clock.o)
 .text.clock_set_seconds
                0x0000000000000000       0x10 contiki-cc2538dk.a(clock.o)
 .text.clock_wait
                0x0000000000000000       0x16 contiki-cc2538dk.a(clock.o)
 .text.clock_delay
                0x0000000000000000        0x6 contiki-cc2538dk.a(clock.o)
 .text          0x0000000000000000        0x0 contiki-cc2538dk.a(rtimer-arch.o)
 .data          0x0000000000000000        0x0 contiki-cc2538dk.a(rtimer-arch.o)
 .bss           0x0000000000000000        0x0 contiki-cc2538dk.a(rtimer-arch.o)
 .text          0x0000000000000000        0x0 contiki-cc2538dk.a(uart.o)
 .data          0x0000000000000000        0x0 contiki-cc2538dk.a(uart.o)
 .bss           0x0000000000000000        0x0 contiki-cc2538dk.a(uart.o)
 .text          0x0000000000000000        0x0 contiki-cc2538dk.a(watchdog.o)
 .data          0x0000000000000000        0x0 contiki-cc2538dk.a(watchdog.o)
 .bss           0x0000000000000000        0x0 contiki-cc2538dk.a(watchdog.o)
 .text.watchdog_reboot
                0x0000000000000000       0x14 contiki-cc2538dk.a(watchdog.o)
 .text          0x0000000000000000        0x0 contiki-cc2538dk.a(nvic.o)
 .data          0x0000000000000000        0x0 contiki-cc2538dk.a(nvic.o)
 .bss           0x0000000000000000        0x0 contiki-cc2538dk.a(nvic.o)
 .text.nvic_interrupt_en_restore
                0x0000000000000000       0x1c contiki-cc2538dk.a(nvic.o)
 .text.nvic_interrupt_en_save
                0x0000000000000000       0x2c contiki-cc2538dk.a(nvic.o)
 .text.nvic_interrupt_pend
                0x0000000000000000       0x1c contiki-cc2538dk.a(nvic.o)
 .text          0x0000000000000000        0x0 contiki-cc2538dk.a(cpu.o)
 .data          0x0000000000000000        0x0 contiki-cc2538dk.a(cpu.o)
 .bss           0x0000000000000000        0x0 contiki-cc2538dk.a(cpu.o)
 .text          0x0000000000000000        0x0 contiki-cc2538dk.a(sys-ctrl.o)
 .data          0x0000000000000000        0x0 contiki-cc2538dk.a(sys-ctrl.o)
 .bss           0x0000000000000000        0x0 contiki-cc2538dk.a(sys-ctrl.o)
 .text.sys_ctrl_reset
                0x0000000000000000        0xc contiki-cc2538dk.a(sys-ctrl.o)
 .text.sys_ctrl_get_sys_clock
                0x0000000000000000       0x18 contiki-cc2538dk.a(sys-ctrl.o)
 .text.sys_ctrl_get_io_clock
                0x0000000000000000       0x18 contiki-cc2538dk.a(sys-ctrl.o)
 .text          0x0000000000000000        0x0 contiki-cc2538dk.a(gpio.o)
 .data          0x0000000000000000        0x0 contiki-cc2538dk.a(gpio.o)
 .bss           0x0000000000000000        0x0 contiki-cc2538dk.a(gpio.o)
 .text          0x0000000000000000        0x0 contiki-cc2538dk.a(ioc.o)
 .data          0x0000000000000000        0x0 contiki-cc2538dk.a(ioc.o)
 .bss           0x0000000000000000        0x0 contiki-cc2538dk.a(ioc.o)
 .text          0x0000000000000000        0x0 contiki-cc2538dk.a(adc.o)
 .data          0x0000000000000000        0x0 contiki-cc2538dk.a(adc.o)
 .bss           0x0000000000000000        0x0 contiki-cc2538dk.a(adc.o)
 .text          0x0000000000000000        0x0 contiki-cc2538dk.a(crypto.o)
 .data          0x0000000000000000        0x0 contiki-cc2538dk.a(crypto.o)
 .bss           0x0000000000000000        0x0 contiki-cc2538dk.a(crypto.o)
 .text.permit_pm1
                0x0000000000000000       0x14 contiki-cc2538dk.a(crypto.o)
 .text.crypto_enable
                0x0000000000000000       0x20 contiki-cc2538dk.a(crypto.o)
 .text.crypto_init
                0x0000000000000000       0x3c contiki-cc2538dk.a(crypto.o)
 .text.crypto_disable
                0x0000000000000000       0x20 contiki-cc2538dk.a(crypto.o)
 .text.crypto_register_process_notification
                0x0000000000000000        0xc contiki-cc2538dk.a(crypto.o)
 .text          0x0000000000000000        0x0 contiki-cc2538dk.a(cc2538-rf.o)
 .data          0x0000000000000000        0x0 contiki-cc2538dk.a(cc2538-rf.o)
 .bss           0x0000000000000000        0x0 contiki-cc2538dk.a(cc2538-rf.o)
 .text.cc2538_rf_set_promiscous_mode
                0x0000000000000000        0x4 contiki-cc2538dk.a(cc2538-rf.o)
 .text          0x0000000000000000        0x0 contiki-cc2538dk.a(udma.o)
 .data          0x0000000000000000        0x0 contiki-cc2538dk.a(udma.o)
 .bss           0x0000000000000000        0x0 contiki-cc2538dk.a(udma.o)
 .text.udma_set_channel_assignment
                0x0000000000000000       0x20 contiki-cc2538dk.a(udma.o)
 .text.udma_channel_disable
                0x0000000000000000       0x14 contiki-cc2538dk.a(udma.o)
 .text.udma_channel_use_alternate
                0x0000000000000000       0x18 contiki-cc2538dk.a(udma.o)
 .text.udma_channel_use_primary
                0x0000000000000000       0x14 contiki-cc2538dk.a(udma.o)
 .text.udma_channel_prio_set_high
                0x0000000000000000       0x18 contiki-cc2538dk.a(udma.o)
 .text.udma_channel_prio_set_default
                0x0000000000000000       0x14 contiki-cc2538dk.a(udma.o)
 .text.udma_channel_use_burst
                0x0000000000000000       0x18 contiki-cc2538dk.a(udma.o)
 .text.udma_channel_use_single
                0x0000000000000000       0x14 contiki-cc2538dk.a(udma.o)
 .text.udma_channel_mask_clr
                0x0000000000000000       0x14 contiki-cc2538dk.a(udma.o)
 .text          0x0000000000000000        0x0 contiki-cc2538dk.a(lpm.o)
 .data          0x0000000000000000        0x0 contiki-cc2538dk.a(lpm.o)
 .bss           0x0000000000000000        0x0 contiki-cc2538dk.a(lpm.o)
 .text.lpm_set_max_pm
                0x0000000000000000       0x10 contiki-cc2538dk.a(lpm.o)
 .text          0x0000000000000000        0x0 contiki-cc2538dk.a(dbg.o)
 .data          0x0000000000000000        0x0 contiki-cc2538dk.a(dbg.o)
 .bss           0x0000000000000000        0x0 contiki-cc2538dk.a(dbg.o)
 .text          0x0000000000000000        0x0 contiki-cc2538dk.a(ieee-addr.o)
 .data          0x0000000000000000        0x0 contiki-cc2538dk.a(ieee-addr.o)
 .bss           0x0000000000000000        0x0 contiki-cc2538dk.a(ieee-addr.o)
 .text          0x0000000000000000        0x0 contiki-cc2538dk.a(slip-arch.o)
 .data          0x0000000000000000        0x0 contiki-cc2538dk.a(slip-arch.o)
 .bss           0x0000000000000000        0x0 contiki-cc2538dk.a(slip-arch.o)
 .text          0x0000000000000000        0x0 contiki-cc2538dk.a(slip.o)
 .data          0x0000000000000000        0x0 contiki-cc2538dk.a(slip.o)
 .bss           0x0000000000000000        0x0 contiki-cc2538dk.a(slip.o)
 .text.slip_write
                0x0000000000000000       0x40 contiki-cc2538dk.a(slip.o)
 .text          0x0000000000000000        0x0 contiki-cc2538dk.a(cc2538-temp-sen)
 .data          0x0000000000000000        0x0 contiki-cc2538dk.a(cc2538-temp-sen)
 .bss           0x0000000000000000        0x0 contiki-cc2538dk.a(cc2538-temp-sen)
 .text          0x0000000000000000        0x0 contiki-cc2538dk.a(vdd3-sensor.o)
 .data          0x0000000000000000        0x0 contiki-cc2538dk.a(vdd3-sensor.o)
 .bss           0x0000000000000000        0x0 contiki-cc2538dk.a(vdd3-sensor.o)
 .text          0x0000000000000000        0x0 contiki-cc2538dk.a(dbg-printf.o)
 .data          0x0000000000000000        0x0 contiki-cc2538dk.a(dbg-printf.o)
 .bss           0x0000000000000000        0x0 contiki-cc2538dk.a(dbg-printf.o)
 .text          0x0000000000000000        0x0 contiki-cc2538dk.a(dbg-snprintf.o)
 .data          0x0000000000000000        0x0 contiki-cc2538dk.a(dbg-snprintf.o)
 .bss           0x0000000000000000        0x0 contiki-cc2538dk.a(dbg-snprintf.o)
 .text          0x0000000000000000        0x0 contiki-cc2538dk.a(strformat.o)
 .data          0x0000000000000000        0x0 contiki-cc2538dk.a(strformat.o)
 .bss           0x0000000000000000        0x0 contiki-cc2538dk.a(strformat.o)
 .text.format_str
                0x0000000000000000       0x1a contiki-cc2538dk.a(strformat.o)
 .text          0x0000000000000000        0x0 contiki-cc2538dk.a(autostart.o)
 .data          0x0000000000000000        0x0 contiki-cc2538dk.a(autostart.o)
 .bss           0x0000000000000000        0x0 contiki-cc2538dk.a(autostart.o)
 .text.autostart_exit
                0x0000000000000000       0x12 contiki-cc2538dk.a(autostart.o)
 .text          0x0000000000000000        0x0 contiki-cc2538dk.a(energest.o)
 .data          0x0000000000000000        0x0 contiki-cc2538dk.a(energest.o)
 .bss           0x0000000000000000        0x0 contiki-cc2538dk.a(energest.o)
 .text.energest_type_set
                0x0000000000000000        0x2 contiki-cc2538dk.a(energest.o)
 .text.energest_type_time
                0x0000000000000000        0x4 contiki-cc2538dk.a(energest.o)
 .text.energest_flush
                0x0000000000000000        0x2 contiki-cc2538dk.a(energest.o)
 .text          0x0000000000000000        0x0 contiki-cc2538dk.a(etimer.o)
 .data          0x0000000000000000        0x0 contiki-cc2538dk.a(etimer.o)
 .bss           0x0000000000000000        0x0 contiki-cc2538dk.a(etimer.o)
 .text.etimer_adjust
                0x0000000000000000        0xa contiki-cc2538dk.a(etimer.o)
 .text.etimer_start_time
                0x0000000000000000        0x4 contiki-cc2538dk.a(etimer.o)
 .text.etimer_next_expiration_time
                0x0000000000000000       0x14 contiki-cc2538dk.a(etimer.o)
 .text          0x0000000000000000        0x0 contiki-cc2538dk.a(ctimer.o)
 .data          0x0000000000000000        0x0 contiki-cc2538dk.a(ctimer.o)
 .bss           0x0000000000000000        0x0 contiki-cc2538dk.a(ctimer.o)
 .text.ctimer_restart
                0x0000000000000000       0x38 contiki-cc2538dk.a(ctimer.o)
 .text.ctimer_expired
                0x0000000000000000       0x34 contiki-cc2538dk.a(ctimer.o)
 .text          0x0000000000000000        0x0 contiki-cc2538dk.a(process.o)
 .data          0x0000000000000000        0x0 contiki-cc2538dk.a(process.o)
 .bss           0x0000000000000000        0x0 contiki-cc2538dk.a(process.o)
 .text.process_exit
                0x0000000000000000        0xc contiki-cc2538dk.a(process.o)
 .text.process_is_running
                0x0000000000000000        0xa contiki-cc2538dk.a(process.o)
 .text          0x0000000000000000        0x0 contiki-cc2538dk.a(rtimer.o)
 .data          0x0000000000000000        0x0 contiki-cc2538dk.a(rtimer.o)
 .bss           0x0000000000000000        0x0 contiki-cc2538dk.a(rtimer.o)
 .text          0x0000000000000000        0x0 contiki-cc2538dk.a(timer.o)
 .data          0x0000000000000000        0x0 contiki-cc2538dk.a(timer.o)
 .bss           0x0000000000000000        0x0 contiki-cc2538dk.a(timer.o)
 .text.timer_remaining
                0x0000000000000000       0x10 contiki-cc2538dk.a(timer.o)
 .text          0x0000000000000000        0x0 contiki-cc2538dk.a(serial-line.o)
 .data          0x0000000000000000        0x0 contiki-cc2538dk.a(serial-line.o)
 .bss           0x0000000000000000        0x0 contiki-cc2538dk.a(serial-line.o)
 .text          0x0000000000000000        0x0 contiki-cc2538dk.a(list.o)
 .data          0x0000000000000000        0x0 contiki-cc2538dk.a(list.o)
 .bss           0x0000000000000000        0x0 contiki-cc2538dk.a(list.o)
 .text.list_copy
                0x0000000000000000        0x6 contiki-cc2538dk.a(list.o)
 .text.list_chop
                0x0000000000000000       0x20 contiki-cc2538dk.a(list.o)
 .text.list_pop
                0x0000000000000000        0xc contiki-cc2538dk.a(list.o)
 .text.list_insert
                0x0000000000000000       0x10 contiki-cc2538dk.a(list.o)
 .text          0x0000000000000000        0x0 contiki-cc2538dk.a(memb.o)
 .data          0x0000000000000000        0x0 contiki-cc2538dk.a(memb.o)
 .bss           0x0000000000000000        0x0 contiki-cc2538dk.a(memb.o)
 .text          0x0000000000000000        0x0 contiki-cc2538dk.a(random.o)
 .data          0x0000000000000000        0x0 contiki-cc2538dk.a(random.o)
 .bss           0x0000000000000000        0x0 contiki-cc2538dk.a(random.o)
 .text          0x0000000000000000        0x0 contiki-cc2538dk.a(ringbuf.o)
 .data          0x0000000000000000        0x0 contiki-cc2538dk.a(ringbuf.o)
 .bss           0x0000000000000000        0x0 contiki-cc2538dk.a(ringbuf.o)
 .text.ringbuf_size
                0x0000000000000000        0x6 contiki-cc2538dk.a(ringbuf.o)
 .text.ringbuf_elements
                0x0000000000000000        0xc contiki-cc2538dk.a(ringbuf.o)
 .text          0x0000000000000000        0x0 contiki-cc2538dk.a(uip-ds6.o)
 .data          0x0000000000000000        0x0 contiki-cc2538dk.a(uip-ds6.o)
 .bss           0x0000000000000000        0x0 contiki-cc2538dk.a(uip-ds6.o)
 .text.uip_ds6_prefix_rm
                0x0000000000000000        0x8 contiki-cc2538dk.a(uip-ds6.o)
 .text.uip_ds6_prefix_lookup
                0x0000000000000000       0x28 contiki-cc2538dk.a(uip-ds6.o)
 .text.uip_ds6_get_global
                0x0000000000000000       0x40 contiki-cc2538dk.a(uip-ds6.o)
 .text.uip_ds6_aaddr_add
                0x0000000000000000       0x4c contiki-cc2538dk.a(uip-ds6.o)
 .text.uip_ds6_aaddr_rm
                0x0000000000000000        0x8 contiki-cc2538dk.a(uip-ds6.o)
 .text.uip_ds6_aaddr_lookup
                0x0000000000000000       0x2c contiki-cc2538dk.a(uip-ds6.o)
 .bss.locaaddr  0x0000000000000000        0x4 contiki-cc2538dk.a(uip-ds6.o)
 .text          0x0000000000000000        0x0 contiki-cc2538dk.a(uip-ds6-route.o)
 .data          0x0000000000000000        0x0 contiki-cc2538dk.a(uip-ds6-route.o)
 .bss           0x0000000000000000        0x0 contiki-cc2538dk.a(uip-ds6-route.o)
 .text.uip_ds6_notification_add
                0x0000000000000000       0x18 contiki-cc2538dk.a(uip-ds6-route.o)
 .text.uip_ds6_notification_rm
                0x0000000000000000        0xc contiki-cc2538dk.a(uip-ds6-route.o)
 .text.uip_ds6_route_num_routes
                0x0000000000000000        0xc contiki-cc2538dk.a(uip-ds6-route.o)
 .text.uip_ds6_route_rm_by_nexthop
                0x0000000000000000       0x1c contiki-cc2538dk.a(uip-ds6-route.o)
 .text          0x0000000000000000        0x0 contiki-cc2538dk.a(uip6.o)
 .data          0x0000000000000000        0x0 contiki-cc2538dk.a(uip6.o)
 .bss           0x0000000000000000        0x0 contiki-cc2538dk.a(uip6.o)
 .text.uip_chksum
                0x0000000000000000       0x14 contiki-cc2538dk.a(uip6.o)
 .text.uip_ipchksum
                0x0000000000000000       0x20 contiki-cc2538dk.a(uip6.o)
 .text.uip_connect
                0x0000000000000000       0xf4 contiki-cc2538dk.a(uip6.o)
 .text.uip_htons
                0x0000000000000000        0x6 contiki-cc2538dk.a(uip6.o)
 .text          0x0000000000000000        0x0 contiki-cc2538dk.a(uip-ds6-nbr.o)
 .data          0x0000000000000000        0x0 contiki-cc2538dk.a(uip-ds6-nbr.o)
 .bss           0x0000000000000000        0x0 contiki-cc2538dk.a(uip-ds6-nbr.o)
 .text.uip_ds6_nbr_get_ipaddr
                0x0000000000000000        0x2 contiki-cc2538dk.a(uip-ds6-nbr.o)
 .text.uip_ds6_nbr_num
                0x0000000000000000       0x24 contiki-cc2538dk.a(uip-ds6-nbr.o)
 .text.uip_ds6_get_least_lifetime_neighbor
                0x0000000000000000       0x48 contiki-cc2538dk.a(uip-ds6-nbr.o)
 .text          0x0000000000000000        0x0 contiki-cc2538dk.a(uip-nd6.o)
 .data          0x0000000000000000        0x0 contiki-cc2538dk.a(uip-nd6.o)
 .bss           0x0000000000000000        0x0 contiki-cc2538dk.a(uip-nd6.o)
 .text          0x0000000000000000        0x0 contiki-cc2538dk.a(sicslowpan.o)
 .data          0x0000000000000000        0x0 contiki-cc2538dk.a(sicslowpan.o)
 .bss           0x0000000000000000        0x0 contiki-cc2538dk.a(sicslowpan.o)
 .text.rime_sniffer_add
                0x0000000000000000        0xc contiki-cc2538dk.a(sicslowpan.o)
 .text.rime_sniffer_remove
                0x0000000000000000        0xc contiki-cc2538dk.a(sicslowpan.o)
 .text.sicslowpan_get_last_rssi
                0x0000000000000000        0xc contiki-cc2538dk.a(sicslowpan.o)
 .text          0x0000000000000000        0x0 contiki-cc2538dk.a(uip-debug.o)
 .data          0x0000000000000000        0x0 contiki-cc2538dk.a(uip-debug.o)
 .bss           0x0000000000000000        0x0 contiki-cc2538dk.a(uip-debug.o)
 .text.uip_debug_lladdr_print
                0x0000000000000000       0x34 contiki-cc2538dk.a(uip-debug.o)
 .text          0x0000000000000000        0x0 contiki-cc2538dk.a(psock.o)
 .data          0x0000000000000000        0x0 contiki-cc2538dk.a(psock.o)
 .bss           0x0000000000000000        0x0 contiki-cc2538dk.a(psock.o)
 .text.psock_generator_send
                0x0000000000000000       0x70 contiki-cc2538dk.a(psock.o)
 .text.psock_readbuf_len
                0x0000000000000000       0xd4 contiki-cc2538dk.a(psock.o)
 .text          0x0000000000000000        0x0 contiki-cc2538dk.a(tcpip.o)
 .data          0x0000000000000000        0x0 contiki-cc2538dk.a(tcpip.o)
 .bss           0x0000000000000000        0x0 contiki-cc2538dk.a(tcpip.o)
 .text.tcp_unlisten
                0x0000000000000000       0x4c contiki-cc2538dk.a(tcpip.o)
 .text.udp_attach
                0x0000000000000000       0x10 contiki-cc2538dk.a(tcpip.o)
 .text.udp_broadcast_new
                0x0000000000000000       0x40 contiki-cc2538dk.a(tcpip.o)
 .text.icmp6_new
                0x0000000000000000       0x20 contiki-cc2538dk.a(tcpip.o)
 .text.tcpip_poll_udp
                0x0000000000000000       0x10 contiki-cc2538dk.a(tcpip.o)
 .text.tcpip_poll_tcp
                0x0000000000000000       0x10 contiki-cc2538dk.a(tcpip.o)
 .text.tcp_connect
                0x0000000000000000       0x20 contiki-cc2538dk.a(tcpip.o)
 .bss.i.7681    0x0000000000000000        0x1 contiki-cc2538dk.a(tcpip.o)
 .text          0x0000000000000000        0x0 contiki-cc2538dk.a(rpl-dag.o)
 .data          0x0000000000000000        0x0 contiki-cc2538dk.a(rpl-dag.o)
 .bss           0x0000000000000000        0x0 contiki-cc2538dk.a(rpl-dag.o)
 .text.rpl_print_neighbor_list
                0x0000000000000000       0xd4 contiki-cc2538dk.a(rpl-dag.o)
 .text.rpl_get_parent_rank
                0x0000000000000000       0x18 contiki-cc2538dk.a(rpl-dag.o)
 .text.rpl_get_parent_link_metric
                0x0000000000000000       0x18 contiki-cc2538dk.a(rpl-dag.o)
 .text.rpl_set_default_instance
                0x0000000000000000        0xc contiki-cc2538dk.a(rpl-dag.o)
 .text.rpl_get_default_instance
                0x0000000000000000        0xc contiki-cc2538dk.a(rpl-dag.o)
 .text.rpl_free_instance
                0x0000000000000000       0x60 contiki-cc2538dk.a(rpl-dag.o)
 .rodata.str1.1
                0x0000000000000000       0x6a contiki-cc2538dk.a(rpl-dag.o)
 .text          0x0000000000000000        0x0 contiki-cc2538dk.a(rpl-timers.o)
 .data          0x0000000000000000        0x0 contiki-cc2538dk.a(rpl-timers.o)
 .bss           0x0000000000000000        0x0 contiki-cc2538dk.a(rpl-timers.o)
 .text.rpl_schedule_dao_immediately
                0x0000000000000000        0x6 contiki-cc2538dk.a(rpl-timers.o)
 .text.rpl_cancel_dao
                0x0000000000000000       0x16 contiki-cc2538dk.a(rpl-timers.o)
 .text          0x0000000000000000        0x0 contiki-cc2538dk.a(rpl-ext-header.)
 .data          0x0000000000000000        0x0 contiki-cc2538dk.a(rpl-ext-header.)
 .bss           0x0000000000000000        0x0 contiki-cc2538dk.a(rpl-ext-header.)
 .text.rpl_remove_header
                0x0000000000000000       0x5c contiki-cc2538dk.a(rpl-ext-header.)
 .text          0x0000000000000000        0x0 contiki-cc2538dk.a(rpl.o)
 .data          0x0000000000000000        0x0 contiki-cc2538dk.a(rpl.o)
 .bss           0x0000000000000000        0x0 contiki-cc2538dk.a(rpl.o)
 .text.rpl_set_mode
                0x0000000000000000       0x30 contiki-cc2538dk.a(rpl.o)
 .text          0x0000000000000000        0x0 contiki-cc2538dk.a(rpl-mrhof.o)
 .data          0x0000000000000000        0x0 contiki-cc2538dk.a(rpl-mrhof.o)
 .bss           0x0000000000000000        0x0 contiki-cc2538dk.a(rpl-mrhof.o)
 .text          0x0000000000000000        0x0 contiki-cc2538dk.a(queuebuf.o)
 .data          0x0000000000000000        0x0 contiki-cc2538dk.a(queuebuf.o)
 .bss           0x0000000000000000        0x0 contiki-cc2538dk.a(queuebuf.o)
 .text.queuebuf_dataptr
                0x0000000000000000       0x18 contiki-cc2538dk.a(queuebuf.o)
 .text.queuebuf_datalen
                0x0000000000000000        0x8 contiki-cc2538dk.a(queuebuf.o)
 .text.queuebuf_addr
                0x0000000000000000        0xa contiki-cc2538dk.a(queuebuf.o)
 .text.queuebuf_debug_print
                0x0000000000000000        0x2 contiki-cc2538dk.a(queuebuf.o)
 .text          0x0000000000000000        0x0 contiki-cc2538dk.a(nbr-table.o)
 .data          0x0000000000000000        0x0 contiki-cc2538dk.a(nbr-table.o)
 .bss           0x0000000000000000        0x0 contiki-cc2538dk.a(nbr-table.o)
 .text          0x0000000000000000        0x0 contiki-cc2538dk.a(packetbuf.o)
 .data          0x0000000000000000        0x0 contiki-cc2538dk.a(packetbuf.o)
 .bss           0x0000000000000000        0x0 contiki-cc2538dk.a(packetbuf.o)
 .text.packetbuf_clear_hdr
                0x0000000000000000        0xc contiki-cc2538dk.a(packetbuf.o)
 .text.packetbuf_copyto_hdr
                0x0000000000000000       0x20 contiki-cc2538dk.a(packetbuf.o)
 .text.packetbuf_hdr_remove
                0x0000000000000000       0x10 contiki-cc2538dk.a(packetbuf.o)
 .text          0x0000000000000000        0x0 contiki-cc2538dk.a(netstack.o)
 .data          0x0000000000000000        0x0 contiki-cc2538dk.a(netstack.o)
 .bss           0x0000000000000000        0x0 contiki-cc2538dk.a(netstack.o)
 .text          0x0000000000000000        0x0 contiki-cc2538dk.a(linkaddr.o)
 .data          0x0000000000000000        0x0 contiki-cc2538dk.a(linkaddr.o)
 .bss           0x0000000000000000        0x0 contiki-cc2538dk.a(linkaddr.o)
 .text.linkaddr_set_node_addr
                0x0000000000000000        0xc contiki-cc2538dk.a(linkaddr.o)
 .text          0x0000000000000000        0x0 contiki-cc2538dk.a(framer-802154.o)
 .data          0x0000000000000000        0x0 contiki-cc2538dk.a(framer-802154.o)
 .bss           0x0000000000000000        0x0 contiki-cc2538dk.a(framer-802154.o)
 .text          0x0000000000000000        0x0 contiki-cc2538dk.a(csma.o)
 .data          0x0000000000000000        0x0 contiki-cc2538dk.a(csma.o)
 .bss           0x0000000000000000        0x0 contiki-cc2538dk.a(csma.o)
 .text          0x0000000000000000        0x0 contiki-cc2538dk.a(frame802154.o)
 .data          0x0000000000000000        0x0 contiki-cc2538dk.a(frame802154.o)
 .bss           0x0000000000000000        0x0 contiki-cc2538dk.a(frame802154.o)
 .text          0x0000000000000000        0x0 contiki-cc2538dk.a(mac.o)
 .data          0x0000000000000000        0x0 contiki-cc2538dk.a(mac.o)
 .bss           0x0000000000000000        0x0 contiki-cc2538dk.a(mac.o)
 .text          0x0000000000000000        0x0 contiki-cc2538dk.a(framer.o)
 .data          0x0000000000000000        0x0 contiki-cc2538dk.a(framer.o)
 .bss           0x0000000000000000        0x0 contiki-cc2538dk.a(framer.o)
 .text          0x0000000000000000        0x0 contiki-cc2538dk.a(contikimac.o)
 .data          0x0000000000000000        0x0 contiki-cc2538dk.a(contikimac.o)
 .bss           0x0000000000000000        0x0 contiki-cc2538dk.a(contikimac.o)
 .text.contikimac_debug_print
                0x0000000000000000        0x4 contiki-cc2538dk.a(contikimac.o)
 .text          0x0000000000000000        0x0 contiki-cc2538dk.a(nullsec.o)
 .data          0x0000000000000000        0x0 contiki-cc2538dk.a(nullsec.o)
 .bss           0x0000000000000000        0x0 contiki-cc2538dk.a(nullsec.o)
 .text          0x0000000000000000        0x0 contiki-cc2538dk.a(er-coap.o)
 .data          0x0000000000000000        0x0 contiki-cc2538dk.a(er-coap.o)
 .bss           0x0000000000000000        0x0 contiki-cc2538dk.a(er-coap.o)
 .text.coap_set_header_accept
                0x0000000000000000       0x10 contiki-cc2538dk.a(er-coap.o)
 .text.coap_get_header_etag
                0x0000000000000000       0x1c contiki-cc2538dk.a(er-coap.o)
 .text.coap_set_header_if_match
                0x0000000000000000       0x22 contiki-cc2538dk.a(er-coap.o)
 .text.coap_set_header_if_none_match
                0x0000000000000000        0xc contiki-cc2538dk.a(er-coap.o)
 .text.coap_get_header_proxy_uri
                0x0000000000000000       0x18 contiki-cc2538dk.a(er-coap.o)
 .text.coap_set_header_proxy_uri
                0x0000000000000000       0x18 contiki-cc2538dk.a(er-coap.o)
 .text.coap_set_header_uri_host
                0x0000000000000000       0x18 contiki-cc2538dk.a(er-coap.o)
 .text.coap_set_header_uri_path
                0x0000000000000000       0x20 contiki-cc2538dk.a(er-coap.o)
 .text.coap_set_header_uri_query
                0x0000000000000000       0x24 contiki-cc2538dk.a(er-coap.o)
 .text.coap_get_header_location_path
                0x0000000000000000       0x12 contiki-cc2538dk.a(er-coap.o)
 .text.coap_get_header_location_query
                0x0000000000000000       0x18 contiki-cc2538dk.a(er-coap.o)
 .text.coap_get_header_observe
                0x0000000000000000       0x18 contiki-cc2538dk.a(er-coap.o)
 .text.coap_get_header_block1
                0x0000000000000000       0x38 contiki-cc2538dk.a(er-coap.o)
 .text.coap_set_header_block1
                0x0000000000000000       0x2c contiki-cc2538dk.a(er-coap.o)
 .text.coap_get_header_size1
                0x0000000000000000       0x1a contiki-cc2538dk.a(er-coap.o)
 .text.coap_set_header_size1
                0x0000000000000000       0x10 contiki-cc2538dk.a(er-coap.o)
 .text          0x0000000000000000        0x0 contiki-cc2538dk.a(stimer.o)
 .data          0x0000000000000000        0x0 contiki-cc2538dk.a(stimer.o)
 .bss           0x0000000000000000        0x0 contiki-cc2538dk.a(stimer.o)
 .text.stimer_reset
                0x0000000000000000        0xa contiki-cc2538dk.a(stimer.o)
 .text.stimer_restart
                0x0000000000000000        0xc contiki-cc2538dk.a(stimer.o)
 .text.stimer_remaining
                0x0000000000000000       0x10 contiki-cc2538dk.a(stimer.o)
 .text.stimer_elapsed
                0x0000000000000000        0xe contiki-cc2538dk.a(stimer.o)
 .text          0x0000000000000000        0x0 contiki-cc2538dk.a(uip-icmp6.o)
 .data          0x0000000000000000        0x0 contiki-cc2538dk.a(uip-icmp6.o)
 .bss           0x0000000000000000        0x0 contiki-cc2538dk.a(uip-icmp6.o)
 .text.uip_icmp6_echo_reply_callback_add
                0x0000000000000000       0x18 contiki-cc2538dk.a(uip-icmp6.o)
 .text.uip_icmp6_echo_reply_callback_rm
                0x0000000000000000        0xc contiki-cc2538dk.a(uip-icmp6.o)
 .text          0x0000000000000000        0x0 contiki-cc2538dk.a(uip-udp-packet.)
 .data          0x0000000000000000        0x0 contiki-cc2538dk.a(uip-udp-packet.)
 .bss           0x0000000000000000        0x0 contiki-cc2538dk.a(uip-udp-packet.)
 .text.uip_udp_packet_sendto
                0x0000000000000000       0x56 contiki-cc2538dk.a(uip-udp-packet.)
 .text          0x0000000000000000        0x0 contiki-cc2538dk.a(rpl-icmp6.o)
 .data          0x0000000000000000        0x0 contiki-cc2538dk.a(rpl-icmp6.o)
 .bss           0x0000000000000000        0x0 contiki-cc2538dk.a(rpl-icmp6.o)
 .text          0x0000000000000000        0x0 contiki-cc2538dk.a(mac-sequence.o)
 .data          0x0000000000000000        0x0 contiki-cc2538dk.a(mac-sequence.o)
 .bss           0x0000000000000000        0x0 contiki-cc2538dk.a(mac-sequence.o)
 .data          0x0000000000000000        0x0 /usr/lib/gcc/arm-none-eabi/4.8/armv7-m/libgcc.a(_aeabi_uldivmod.o)
 .bss           0x0000000000000000        0x0 /usr/lib/gcc/arm-none-eabi/4.8/armv7-m/libgcc.a(_aeabi_uldivmod.o)
 .data          0x0000000000000000        0x0 /usr/lib/gcc/arm-none-eabi/4.8/armv7-m/libgcc.a(bpabi.o)
 .bss           0x0000000000000000        0x0 /usr/lib/gcc/arm-none-eabi/4.8/armv7-m/libgcc.a(bpabi.o)
 .data          0x0000000000000000        0x0 /usr/lib/gcc/arm-none-eabi/4.8/armv7-m/libgcc.a(_dvmd_tls.o)
 .bss           0x0000000000000000        0x0 /usr/lib/gcc/arm-none-eabi/4.8/armv7-m/libgcc.a(_dvmd_tls.o)
 .data          0x0000000000000000        0x0 /usr/lib/gcc/arm-none-eabi/4.8/armv7-m/libgcc.a(_divdi3.o)
 .bss           0x0000000000000000        0x0 /usr/lib/gcc/arm-none-eabi/4.8/armv7-m/libgcc.a(_divdi3.o)
 .ARM.extab     0x0000000000000000        0x0 /usr/lib/gcc/arm-none-eabi/4.8/armv7-m/libgcc.a(_divdi3.o)
 .data          0x0000000000000000        0x0 /usr/lib/gcc/arm-none-eabi/4.8/armv7-m/libgcc.a(_udivdi3.o)
 .bss           0x0000000000000000        0x0 /usr/lib/gcc/arm-none-eabi/4.8/armv7-m/libgcc.a(_udivdi3.o)
 .ARM.extab     0x0000000000000000        0x0 /usr/lib/gcc/arm-none-eabi/4.8/armv7-m/libgcc.a(_udivdi3.o)
 .text          0x0000000000000000        0x0 /usr/lib/gcc/arm-none-eabi/4.8/../../../arm-none-eabi/lib/armv7-m/libc.a(lib_a-atoi.o)
 .data          0x0000000000000000        0x0 /usr/lib/gcc/arm-none-eabi/4.8/../../../arm-none-eabi/lib/armv7-m/libc.a(lib_a-atoi.o)
 .bss           0x0000000000000000        0x0 /usr/lib/gcc/arm-none-eabi/4.8/../../../arm-none-eabi/lib/armv7-m/libc.a(lib_a-atoi.o)
 .text._atoi_r  0x0000000000000000        0x8 /usr/lib/gcc/arm-none-eabi/4.8/../../../arm-none-eabi/lib/armv7-m/libc.a(lib_a-atoi.o)
 .text          0x0000000000000000        0x0 /usr/lib/gcc/arm-none-eabi/4.8/../../../arm-none-eabi/lib/armv7-m/libc.a(lib_a-memchr-stub.o)
 .data          0x0000000000000000        0x0 /usr/lib/gcc/arm-none-eabi/4.8/../../../arm-none-eabi/lib/armv7-m/libc.a(lib_a-memchr-stub.o)
 .bss           0x0000000000000000        0x0 /usr/lib/gcc/arm-none-eabi/4.8/../../../arm-none-eabi/lib/armv7-m/libc.a(lib_a-memchr-stub.o)
 .text          0x0000000000000000        0x0 /usr/lib/gcc/arm-none-eabi/4.8/../../../arm-none-eabi/lib/armv7-m/libc.a(lib_a-memcmp.o)
 .data          0x0000000000000000        0x0 /usr/lib/gcc/arm-none-eabi/4.8/../../../arm-none-eabi/lib/armv7-m/libc.a(lib_a-memcmp.o)
 .bss           0x0000000000000000        0x0 /usr/lib/gcc/arm-none-eabi/4.8/../../../arm-none-eabi/lib/armv7-m/libc.a(lib_a-memcmp.o)
 .data          0x0000000000000000        0x0 /usr/lib/gcc/arm-none-eabi/4.8/../../../arm-none-eabi/lib/armv7-m/libc.a(lib_a-memcpy.o)
 .bss           0x0000000000000000        0x0 /usr/lib/gcc/arm-none-eabi/4.8/../../../arm-none-eabi/lib/armv7-m/libc.a(lib_a-memcpy.o)
 .text          0x0000000000000000        0x0 /usr/lib/gcc/arm-none-eabi/4.8/../../../arm-none-eabi/lib/armv7-m/libc.a(lib_a-memmove.o)
 .data          0x0000000000000000        0x0 /usr/lib/gcc/arm-none-eabi/4.8/../../../arm-none-eabi/lib/armv7-m/libc.a(lib_a-memmove.o)
 .bss           0x0000000000000000        0x0 /usr/lib/gcc/arm-none-eabi/4.8/../../../arm-none-eabi/lib/armv7-m/libc.a(lib_a-memmove.o)
 .text          0x0000000000000000        0x0 /usr/lib/gcc/arm-none-eabi/4.8/../../../arm-none-eabi/lib/armv7-m/libc.a(lib_a-memset.o)
 .data          0x0000000000000000        0x0 /usr/lib/gcc/arm-none-eabi/4.8/../../../arm-none-eabi/lib/armv7-m/libc.a(lib_a-memset.o)
 .bss           0x0000000000000000        0x0 /usr/lib/gcc/arm-none-eabi/4.8/../../../arm-none-eabi/lib/armv7-m/libc.a(lib_a-memset.o)
 .text          0x0000000000000000        0x0 /usr/lib/gcc/arm-none-eabi/4.8/../../../arm-none-eabi/lib/armv7-m/libc.a(lib_a-strchr.o)
 .data          0x0000000000000000        0x0 /usr/lib/gcc/arm-none-eabi/4.8/../../../arm-none-eabi/lib/armv7-m/libc.a(lib_a-strchr.o)
 .bss           0x0000000000000000        0x0 /usr/lib/gcc/arm-none-eabi/4.8/../../../arm-none-eabi/lib/armv7-m/libc.a(lib_a-strchr.o)
 .text          0x0000000000000000        0x0 /usr/lib/gcc/arm-none-eabi/4.8/../../../arm-none-eabi/lib/armv7-m/libc.a(lib_a-strcpy.o)
 .data          0x0000000000000000        0x0 /usr/lib/gcc/arm-none-eabi/4.8/../../../arm-none-eabi/lib/armv7-m/libc.a(lib_a-strcpy.o)
 .bss           0x0000000000000000        0x0 /usr/lib/gcc/arm-none-eabi/4.8/../../../arm-none-eabi/lib/armv7-m/libc.a(lib_a-strcpy.o)
 .text          0x0000000000000000        0x0 /usr/lib/gcc/arm-none-eabi/4.8/../../../arm-none-eabi/lib/armv7-m/libc.a(lib_a-strlen.o)
 .data          0x0000000000000000        0x0 /usr/lib/gcc/arm-none-eabi/4.8/../../../arm-none-eabi/lib/armv7-m/libc.a(lib_a-strlen.o)
 .bss           0x0000000000000000        0x0 /usr/lib/gcc/arm-none-eabi/4.8/../../../arm-none-eabi/lib/armv7-m/libc.a(lib_a-strlen.o)
 .text          0x0000000000000000        0x0 /usr/lib/gcc/arm-none-eabi/4.8/../../../arm-none-eabi/lib/armv7-m/libc.a(lib_a-strncmp.o)
 .data          0x0000000000000000        0x0 /usr/lib/gcc/arm-none-eabi/4.8/../../../arm-none-eabi/lib/armv7-m/libc.a(lib_a-strncmp.o)
 .bss           0x0000000000000000        0x0 /usr/lib/gcc/arm-none-eabi/4.8/../../../arm-none-eabi/lib/armv7-m/libc.a(lib_a-strncmp.o)
 .text          0x0000000000000000        0x0 /usr/lib/gcc/arm-none-eabi/4.8/../../../arm-none-eabi/lib/armv7-m/libc.a(lib_a-strncpy.o)
 .data          0x0000000000000000        0x0 /usr/lib/gcc/arm-none-eabi/4.8/../../../arm-none-eabi/lib/armv7-m/libc.a(lib_a-strncpy.o)
 .bss           0x0000000000000000        0x0 /usr/lib/gcc/arm-none-eabi/4.8/../../../arm-none-eabi/lib/armv7-m/libc.a(lib_a-strncpy.o)
 .text          0x0000000000000000        0x0 /usr/lib/gcc/arm-none-eabi/4.8/../../../arm-none-eabi/lib/armv7-m/libc.a(lib_a-strtol.o)
 .data          0x0000000000000000        0x0 /usr/lib/gcc/arm-none-eabi/4.8/../../../arm-none-eabi/lib/armv7-m/libc.a(lib_a-strtol.o)
 .bss           0x0000000000000000        0x0 /usr/lib/gcc/arm-none-eabi/4.8/../../../arm-none-eabi/lib/armv7-m/libc.a(lib_a-strtol.o)
 .text          0x0000000000000000        0x0 /usr/lib/gcc/arm-none-eabi/4.8/../../../arm-none-eabi/lib/armv7-m/libc.a(lib_a-ctype_.o)
 .data          0x0000000000000000        0x0 /usr/lib/gcc/arm-none-eabi/4.8/../../../arm-none-eabi/lib/armv7-m/libc.a(lib_a-ctype_.o)
 .bss           0x0000000000000000        0x0 /usr/lib/gcc/arm-none-eabi/4.8/../../../arm-none-eabi/lib/armv7-m/libc.a(lib_a-ctype_.o)
 .text          0x0000000000000000        0x0 /usr/lib/gcc/arm-none-eabi/4.8/../../../arm-none-eabi/lib/armv7-m/libc.a(lib_a-impure.o)
 .data          0x0000000000000000        0x0 /usr/lib/gcc/arm-none-eabi/4.8/../../../arm-none-eabi/lib/armv7-m/libc.a(lib_a-impure.o)
 .bss           0x0000000000000000        0x0 /usr/lib/gcc/arm-none-eabi/4.8/../../../arm-none-eabi/lib/armv7-m/libc.a(lib_a-impure.o)
 .rodata._global_impure_ptr
                0x0000000000000000        0x4 /usr/lib/gcc/arm-none-eabi/4.8/../../../arm-none-eabi/lib/armv7-m/libc.a(lib_a-impure.o)

Memory Configuration

Name             Origin             Length             Attributes
FLASH            0x0000000000200000 0x000000000007ffd4 xr
FLASH_CCA        0x000000000027ffd4 0x000000000000002c xr
SRAM             0x0000000020000000 0x0000000000008000 xrw
*default*        0x0000000000000000 0xffffffffffffffff

Linker script and memory map

LOAD obj_cc2538dk/startup-gcc.o
LOAD borderest.co
LOAD obj_cc2538dk/slip-bridge.o
LOAD obj_cc2538dk/res-leds.o
LOAD obj_cc2538dk/res-toggle.o
LOAD obj_cc2538dk/res-hello.o
LOAD obj_cc2538dk/httpd-simple.o
LOAD contiki-cc2538dk.a
START GROUP
LOAD /usr/lib/gcc/arm-none-eabi/4.8/armv7-m/libgcc.a
LOAD /usr/lib/gcc/arm-none-eabi/4.8/../../../arm-none-eabi/lib/armv7-m/libc.a
END GROUP

.text           0x0000000000200000     0xd7f7
                0x0000000000200000                _text = .
 *(SORT(.vectors))
 .vectors       0x0000000000200000      0x28c obj_cc2538dk/startup-gcc.o
                0x0000000000200000                vectors
 *(SORT(.text*))
 .text.reset_handler
                0x000000000020028c       0x40 obj_cc2538dk/startup-gcc.o
                0x000000000020028c                reset_handler
 .text.process_thread_webserver_nogui_process
                0x00000000002002cc       0x34 borderest.co
 .text.ipaddr_add
                0x0000000000200300       0xa8 borderest.co
 .text.generate_routes
                0x00000000002003a8      0x208 borderest.co
 .text.httpd_simple_get_script
                0x00000000002005b0        0x8 borderest.co
                0x00000000002005b0                httpd_simple_get_script
 .text.request_prefix
                0x00000000002005b8       0x24 borderest.co
                0x00000000002005b8                request_prefix
 .text.set_prefix_64
                0x00000000002005dc       0x68 borderest.co
                0x00000000002005dc                set_prefix_64
 .text.activate_coap_resources
                0x0000000000200644       0x38 borderest.co
                0x0000000000200644                activate_coap_resources
 .text.process_thread_borderest_process
                0x000000000020067c      0x104 borderest.co
 .text.init     0x0000000000200780       0x24 obj_cc2538dk/slip-bridge.o
 .text.slip_input_callback
                0x00000000002007a4       0xd4 obj_cc2538dk/slip-bridge.o
 .text.output   0x0000000000200878       0x4c obj_cc2538dk/slip-bridge.o
 .text.res_post_put_handler
                0x00000000002008c4       0xe4 obj_cc2538dk/res-leds.o
 .text.res_get_handler
                0x00000000002009a8       0xe8 obj_cc2538dk/res-leds.o
 .text.res_get_handler
                0x0000000000200a90       0x68 obj_cc2538dk/res-hello.o
 .text.handle_input
                0x0000000000200af8       0xc8 obj_cc2538dk/httpd-simple.o
 .text.send_headers
                0x0000000000200bc0       0x50 obj_cc2538dk/httpd-simple.o
 .text.handle_output
                0x0000000000200c10       0xcc obj_cc2538dk/httpd-simple.o
 .text.httpd_appcall
                0x0000000000200cdc       0xd0 obj_cc2538dk/httpd-simple.o
                0x0000000000200cdc                httpd_appcall
 .text.httpd_init
                0x0000000000200dac       0x18 obj_cc2538dk/httpd-simple.o
                0x0000000000200dac                httpd_init
 .text.coap_set_service_callback
                0x0000000000200dc4        0xc contiki-cc2538dk.a(er-coap-engine.)
                0x0000000000200dc4                coap_set_service_callback
 .text.process_thread_coap_engine
                0x0000000000200dd0      0x36c contiki-cc2538dk.a(er-coap-engine.)
 .text.coap_init_engine
                0x000000000020113c        0xc contiki-cc2538dk.a(er-coap-engine.)
                0x000000000020113c                coap_init_engine
 .text.coap_register_as_transaction_handler
                0x0000000000201148       0x14 contiki-cc2538dk.a(er-coap-transac)
                0x0000000000201148                coap_register_as_transaction_handler
 .text.coap_new_transaction
                0x000000000020115c       0x44 contiki-cc2538dk.a(er-coap-transac)
                0x000000000020115c                coap_new_transaction
 .text.coap_clear_transaction
                0x00000000002011a0       0x2c contiki-cc2538dk.a(er-coap-transac)
                0x00000000002011a0                coap_clear_transaction
 .text.coap_send_transaction
                0x00000000002011cc       0x94 contiki-cc2538dk.a(er-coap-transac)
                0x00000000002011cc                coap_send_transaction
 .text.coap_get_transaction_by_mid
                0x0000000000201260       0x1c contiki-cc2538dk.a(er-coap-transac)
                0x0000000000201260                coap_get_transaction_by_mid
 .text.coap_check_transactions
                0x000000000020127c       0x2c contiki-cc2538dk.a(er-coap-transac)
                0x000000000020127c                coap_check_transactions
 .text.coap_remove_observer
                0x00000000002012a8       0x20 contiki-cc2538dk.a(er-coap-observe)
                0x00000000002012a8                coap_remove_observer
 .text.coap_remove_observer_by_client
                0x00000000002012c8       0x3c contiki-cc2538dk.a(er-coap-observe)
                0x00000000002012c8                coap_remove_observer_by_client
 .text.coap_remove_observer_by_token
                0x0000000000201304       0x58 contiki-cc2538dk.a(er-coap-observe)
                0x0000000000201304                coap_remove_observer_by_token
 .text.coap_remove_observer_by_uri
                0x000000000020135c       0x5c contiki-cc2538dk.a(er-coap-observe)
                0x000000000020135c                coap_remove_observer_by_uri
 .text.coap_add_observer
                0x00000000002013b8       0x68 contiki-cc2538dk.a(er-coap-observe)
                0x00000000002013b8                coap_add_observer
 .text.coap_remove_observer_by_mid
                0x0000000000201420       0x48 contiki-cc2538dk.a(er-coap-observe)
                0x0000000000201420                coap_remove_observer_by_mid
 .text.coap_notify_observers
                0x0000000000201468       0xa4 contiki-cc2538dk.a(er-coap-observe)
                0x0000000000201468                coap_notify_observers
 .text.coap_observe_handler
                0x000000000020150c       0x94 contiki-cc2538dk.a(er-coap-observe)
                0x000000000020150c                coap_observe_handler
 .text.well_known_core_get_handler
                0x00000000002015a0      0x160 contiki-cc2538dk.a(er-coap-res-wel)
                0x00000000002015a0                well_known_core_get_handler
 .text.process_thread_rest_engine_process
                0x0000000000201700       0x88 contiki-cc2538dk.a(rest-engine.o)
 .text.rest_invoke_restful_service
                0x0000000000201788      0x108 contiki-cc2538dk.a(rest-engine.o)
                0x0000000000201788                rest_invoke_restful_service
 .text.rest_init_engine
                0x0000000000201890       0x30 contiki-cc2538dk.a(rest-engine.o)
                0x0000000000201890                rest_init_engine
 .text.rest_activate_resource
                0x00000000002018c0       0x34 contiki-cc2538dk.a(rest-engine.o)
                0x00000000002018c0                rest_activate_resource
 .text.rest_get_resources
                0x00000000002018f4        0x8 contiki-cc2538dk.a(rest-engine.o)
                0x00000000002018f4                rest_get_resources
 .text.leds_init
                0x00000000002018fc       0x14 contiki-cc2538dk.a(leds.o)
                0x00000000002018fc                leds_init
 .text.leds_on  0x0000000000201910       0x10 contiki-cc2538dk.a(leds.o)
                0x0000000000201910                leds_on
 .text.leds_off
                0x0000000000201920       0x14 contiki-cc2538dk.a(leds.o)
                0x0000000000201920                leds_off
 .text.leds_toggle
                0x0000000000201934       0x10 contiki-cc2538dk.a(leds.o)
                0x0000000000201934                leds_toggle
 .text.leds_arch_init
                0x0000000000201944       0x10 contiki-cc2538dk.a(leds-arch.o)
                0x0000000000201944                leds_arch_init
 .text.leds_arch_get
                0x0000000000201954        0xc contiki-cc2538dk.a(leds-arch.o)
                0x0000000000201954                leds_arch_get
 .text.leds_arch_set
                0x0000000000201960        0xc contiki-cc2538dk.a(leds-arch.o)
                0x0000000000201960                leds_arch_set
 .text.startup.main
                0x000000000020196c      0x1a0 contiki-cc2538dk.a(contiki-main.o)
                0x000000000020196c                main
 .text.process_thread_sensors_process
                0x0000000000201b0c       0xd4 contiki-cc2538dk.a(sensors.o)
 .text.sensors_changed
                0x0000000000201be0       0x38 contiki-cc2538dk.a(sensors.o)
                0x0000000000201be0                sensors_changed
 .text.config_select
                0x0000000000201c18       0x30 contiki-cc2538dk.a(button-sensor.o)
 .text.config_left
                0x0000000000201c48       0x30 contiki-cc2538dk.a(button-sensor.o)
 .text.config_right
                0x0000000000201c78       0x30 contiki-cc2538dk.a(button-sensor.o)
 .text.config_up
                0x0000000000201ca8       0x30 contiki-cc2538dk.a(button-sensor.o)
 .text.config_down
                0x0000000000201cd8       0x30 contiki-cc2538dk.a(button-sensor.o)
 .text.btn_callback
                0x0000000000201d08       0x64 contiki-cc2538dk.a(button-sensor.o)
 .text.button_sensor_init
                0x0000000000201d6c        0xc contiki-cc2538dk.a(button-sensor.o)
                0x0000000000201d6c                button_sensor_init
 .text.value    0x0000000000201d78       0x24 contiki-cc2538dk.a(als-sensor.o)
 .text.configure
                0x0000000000201d9c       0x54 contiki-cc2538dk.a(als-sensor.o)
 .text.update_ticks
                0x0000000000201df0       0x50 contiki-cc2538dk.a(clock.o)
 .text.clock_init
                0x0000000000201e40       0x54 contiki-cc2538dk.a(clock.o)
                0x0000000000201e40                clock_init
 .text.clock_time
                0x0000000000201e94       0x14 contiki-cc2538dk.a(clock.o)
                0x0000000000201e94                clock_time
 .text.clock_seconds
                0x0000000000201ea8       0x14 contiki-cc2538dk.a(clock.o)
                0x0000000000201ea8                clock_seconds
 .text.clock_delay_usec
                0x0000000000201ebc       0x1c contiki-cc2538dk.a(clock.o)
                0x0000000000201ebc                clock_delay_usec
 .text.clock_adjust
                0x0000000000201ed8       0x20 contiki-cc2538dk.a(clock.o)
                0x0000000000201ed8                clock_adjust
 .text.rtimer_arch_next_trigger
                0x0000000000201ef8        0xc contiki-cc2538dk.a(rtimer-arch.o)
                0x0000000000201ef8                rtimer_arch_next_trigger
 .text.rtimer_arch_now
                0x0000000000201f04       0x24 contiki-cc2538dk.a(rtimer-arch.o)
                0x0000000000201f04                rtimer_arch_now
 .text.rtimer_arch_schedule
                0x0000000000201f28       0x58 contiki-cc2538dk.a(rtimer-arch.o)
                0x0000000000201f28                rtimer_arch_schedule
 .text.rtimer_isr
                0x0000000000201f80       0x24 contiki-cc2538dk.a(rtimer-arch.o)
                0x0000000000201f80                rtimer_isr
 .text.permit_pm1
                0x0000000000201fa4       0x2c contiki-cc2538dk.a(uart.o)
 .text.uart_isr
                0x0000000000201fd0       0x64 contiki-cc2538dk.a(uart.o)
 .text.uart_init
                0x0000000000202034      0x184 contiki-cc2538dk.a(uart.o)
                0x0000000000202034                uart_init
 .text.uart_set_input
                0x00000000002021b8       0x10 contiki-cc2538dk.a(uart.o)
                0x00000000002021b8                uart_set_input
 .text.uart_write_byte
                0x00000000002021c8       0x1c contiki-cc2538dk.a(uart.o)
                0x00000000002021c8                uart_write_byte
 .text.watchdog_init
                0x00000000002021e4        0xc contiki-cc2538dk.a(watchdog.o)
                0x00000000002021e4                watchdog_init
 .text.watchdog_start
                0x00000000002021f0        0xc contiki-cc2538dk.a(watchdog.o)
                0x00000000002021f0                watchdog_start
 .text.watchdog_periodic
                0x00000000002021fc       0x10 contiki-cc2538dk.a(watchdog.o)
                0x00000000002021fc                watchdog_periodic
 .text.nvic_init
                0x000000000020220c       0x3c contiki-cc2538dk.a(nvic.o)
                0x000000000020220c                nvic_init
 .text.nvic_interrupt_enable
                0x0000000000202248       0x1c contiki-cc2538dk.a(nvic.o)
                0x0000000000202248                nvic_interrupt_enable
 .text.nvic_interrupt_disable
                0x0000000000202264       0x1c contiki-cc2538dk.a(nvic.o)
                0x0000000000202264                nvic_interrupt_disable
 .text.nvic_interrupt_unpend
                0x0000000000202280       0x1c contiki-cc2538dk.a(nvic.o)
                0x0000000000202280                nvic_interrupt_unpend
 .text.sys_ctrl_init
                0x000000000020229c       0x28 contiki-cc2538dk.a(sys-ctrl.o)
                0x000000000020229c                sys_ctrl_init
 .text.gpio_register_callback
                0x00000000002022c4       0x10 contiki-cc2538dk.a(gpio.o)
                0x00000000002022c4                gpio_register_callback
 .text.notify   0x00000000002022d4       0x30 contiki-cc2538dk.a(gpio.o)
                0x00000000002022d4                notify
 .text.gpio_port_isr
                0x0000000000202304       0x4c contiki-cc2538dk.a(gpio.o)
 .text.gpio_init
                0x0000000000202350       0x10 contiki-cc2538dk.a(gpio.o)
                0x0000000000202350                gpio_init
 .text.ioc_init
                0x0000000000202360       0x1c contiki-cc2538dk.a(ioc.o)
                0x0000000000202360                ioc_init
 .text.ioc_set_over
                0x000000000020237c       0x14 contiki-cc2538dk.a(ioc.o)
                0x000000000020237c                ioc_set_over
 .text.ioc_set_sel
                0x0000000000202390       0x14 contiki-cc2538dk.a(ioc.o)
                0x0000000000202390                ioc_set_sel
 .text.adc_init
                0x00000000002023a4       0x10 contiki-cc2538dk.a(adc.o)
                0x00000000002023a4                adc_init
 .text.adc_get  0x00000000002023b4       0x74 contiki-cc2538dk.a(adc.o)
                0x00000000002023b4                adc_get
 .text.crypto_isr
                0x0000000000202428       0x24 contiki-cc2538dk.a(crypto.o)
                0x0000000000202428                crypto_isr
 .text.on       0x000000000020244c       0x2c contiki-cc2538dk.a(cc2538-rf.o)
 .text.off      0x0000000000202478       0x38 contiki-cc2538dk.a(cc2538-rf.o)
 .text.set_channel
                0x00000000002024b0       0x48 contiki-cc2538dk.a(cc2538-rf.o)
 .text.channel_clear
                0x00000000002024f8       0x3c contiki-cc2538dk.a(cc2538-rf.o)
 .text.receiving_packet
                0x0000000000202534       0x18 contiki-cc2538dk.a(cc2538-rf.o)
 .text.pending_packet
                0x000000000020254c       0x10 contiki-cc2538dk.a(cc2538-rf.o)
 .text.get_value
                0x000000000020255c      0x11c contiki-cc2538dk.a(cc2538-rf.o)
 .text.prepare  0x0000000000202678       0x64 contiki-cc2538dk.a(cc2538-rf.o)
 .text.transmit
                0x00000000002026dc       0x8c contiki-cc2538dk.a(cc2538-rf.o)
 .text.set_frame_filtering
                0x0000000000202768       0x18 contiki-cc2538dk.a(cc2538-rf.o)
 .text.set_value
                0x0000000000202780       0xd8 contiki-cc2538dk.a(cc2538-rf.o)
 .text.get_object
                0x0000000000202858       0x34 contiki-cc2538dk.a(cc2538-rf.o)
 .text.set_object
                0x000000000020288c       0x34 contiki-cc2538dk.a(cc2538-rf.o)
 .text.read     0x00000000002028c0       0xc8 contiki-cc2538dk.a(cc2538-rf.o)
 .text.init     0x0000000000202988       0xcc contiki-cc2538dk.a(cc2538-rf.o)
 .text.process_thread_cc2538_rf_process
                0x0000000000202a54       0x74 contiki-cc2538dk.a(cc2538-rf.o)
 .text.cc2538_rf_rx_tx_isr
                0x0000000000202ac8       0x18 contiki-cc2538dk.a(cc2538-rf.o)
                0x0000000000202ac8                cc2538_rf_rx_tx_isr
 .text.cc2538_rf_err_isr
                0x0000000000202ae0       0x2c contiki-cc2538dk.a(cc2538-rf.o)
                0x0000000000202ae0                cc2538_rf_err_isr
 .text.udma_init
                0x0000000000202b0c       0x30 contiki-cc2538dk.a(udma.o)
                0x0000000000202b0c                udma_init
 .text.udma_set_channel_src
                0x0000000000202b3c       0x10 contiki-cc2538dk.a(udma.o)
                0x0000000000202b3c                udma_set_channel_src
 .text.udma_set_channel_dst
                0x0000000000202b4c       0x14 contiki-cc2538dk.a(udma.o)
                0x0000000000202b4c                udma_set_channel_dst
 .text.udma_set_channel_control_word
                0x0000000000202b60       0x14 contiki-cc2538dk.a(udma.o)
                0x0000000000202b60                udma_set_channel_control_word
 .text.udma_channel_enable
                0x0000000000202b74       0x18 contiki-cc2538dk.a(udma.o)
                0x0000000000202b74                udma_channel_enable
 .text.udma_channel_mask_set
                0x0000000000202b8c       0x18 contiki-cc2538dk.a(udma.o)
                0x0000000000202b8c                udma_channel_mask_set
 .text.udma_channel_sw_request
                0x0000000000202ba4       0x18 contiki-cc2538dk.a(udma.o)
                0x0000000000202ba4                udma_channel_sw_request
 .text.udma_channel_get_mode
                0x0000000000202bbc       0x1c contiki-cc2538dk.a(udma.o)
                0x0000000000202bbc                udma_channel_get_mode
 .text.udma_isr
                0x0000000000202bd8       0x10 contiki-cc2538dk.a(udma.o)
                0x0000000000202bd8                udma_isr
 .text.udma_err_isr
                0x0000000000202be8        0xc contiki-cc2538dk.a(udma.o)
                0x0000000000202be8                udma_err_isr
 .text.select_32_mhz_xosc
                0x0000000000202bf4       0x2c contiki-cc2538dk.a(lpm.o)
 .text.lpm_exit
                0x0000000000202c20       0x34 contiki-cc2538dk.a(lpm.o)
                0x0000000000202c20                lpm_exit
 .text.lpm_enter
                0x0000000000202c54       0xb0 contiki-cc2538dk.a(lpm.o)
                0x0000000000202c54                lpm_enter
 .text.lpm_register_peripheral
                0x0000000000202d04       0x20 contiki-cc2538dk.a(lpm.o)
                0x0000000000202d04                lpm_register_peripheral
 .text.lpm_init
                0x0000000000202d24       0x24 contiki-cc2538dk.a(lpm.o)
                0x0000000000202d24                lpm_init
 .text.putchar  0x0000000000202d48       0x40 contiki-cc2538dk.a(dbg.o)
                0x0000000000202d48                putchar
 .text.ieee_addr_cpy_to
                0x0000000000202d88       0x70 contiki-cc2538dk.a(ieee-addr.o)
                0x0000000000202d88                ieee_addr_cpy_to
 .text.slip_arch_init
                0x0000000000202df8        0xc contiki-cc2538dk.a(slip-arch.o)
                0x0000000000202df8                slip_arch_init
 .text.process_thread_slip_process
                0x0000000000202e04      0x174 contiki-cc2538dk.a(slip.o)
 .text.slip_set_input_callback
                0x0000000000202f78        0xc contiki-cc2538dk.a(slip.o)
                0x0000000000202f78                slip_set_input_callback
 .text.slip_send
                0x0000000000202f84       0x5c contiki-cc2538dk.a(slip.o)
                0x0000000000202f84                slip_send
 .text.slip_input_byte
                0x0000000000202fe0       0xbc contiki-cc2538dk.a(slip.o)
                0x0000000000202fe0                slip_input_byte
 .text.printf   0x000000000020309c       0x20 contiki-cc2538dk.a(dbg-printf.o)
                0x000000000020309c                printf
 .text.vsnprintf
                0x00000000002030bc       0x28 contiki-cc2538dk.a(dbg-snprintf.o)
                0x00000000002030bc                vsnprintf
 .text.fill_space
                0x00000000002030e4       0x30 contiki-cc2538dk.a(strformat.o)
 .text.format_str_v
                0x0000000000203114      0x6d0 contiki-cc2538dk.a(strformat.o)
                0x0000000000203114                format_str_v
 .text.update_time
                0x00000000002037e4       0x40 contiki-cc2538dk.a(etimer.o)
 .text.etimer_request_poll
                0x0000000000203824        0xc contiki-cc2538dk.a(etimer.o)
                0x0000000000203824                etimer_request_poll
 .text.process_thread_etimer_process
                0x0000000000203830       0x94 contiki-cc2538dk.a(etimer.o)
 .text.add_timer
                0x00000000002038c4       0x40 contiki-cc2538dk.a(etimer.o)
 .text.etimer_pending
                0x0000000000203904       0x10 contiki-cc2538dk.a(etimer.o)
                0x0000000000203904                etimer_pending
 .text.etimer_stop
                0x0000000000203914       0x34 contiki-cc2538dk.a(etimer.o)
                0x0000000000203914                etimer_stop
 .text.process_thread_ctimer_process
                0x0000000000203948       0x80 contiki-cc2538dk.a(ctimer.o)
 .text.ctimer_init
                0x00000000002039c8       0x28 contiki-cc2538dk.a(ctimer.o)
                0x00000000002039c8                ctimer_init
 .text.ctimer_set
                0x00000000002039f0       0x40 contiki-cc2538dk.a(ctimer.o)
                0x00000000002039f0                ctimer_set
 .text.ctimer_reset
                0x0000000000203a30       0x38 contiki-cc2538dk.a(ctimer.o)
                0x0000000000203a30                ctimer_reset
 .text.ctimer_stop
                0x0000000000203a68       0x2c contiki-cc2538dk.a(ctimer.o)
                0x0000000000203a68                ctimer_stop
 .text.call_process.part.0
                0x0000000000203a94       0x38 contiki-cc2538dk.a(process.o)
 .text.exit_process
                0x0000000000203acc       0x84 contiki-cc2538dk.a(process.o)
 .text.do_poll  0x0000000000203b50       0x30 contiki-cc2538dk.a(process.o)
 .text.process_alloc_event
                0x0000000000203b80       0x10 contiki-cc2538dk.a(process.o)
                0x0000000000203b80                process_alloc_event
 .text.process_init
                0x0000000000203b90       0x30 contiki-cc2538dk.a(process.o)
                0x0000000000203b90                process_init
 .text.process_run
                0x0000000000203bc0       0xb0 contiki-cc2538dk.a(process.o)
                0x0000000000203bc0                process_run
 .text.process_nevents
                0x0000000000203c70       0x14 contiki-cc2538dk.a(process.o)
                0x0000000000203c70                process_nevents
 .text.process_post
                0x0000000000203c84       0x44 contiki-cc2538dk.a(process.o)
                0x0000000000203c84                process_post
 .text.process_post_synch
                0x0000000000203cc8       0x14 contiki-cc2538dk.a(process.o)
                0x0000000000203cc8                process_post_synch
 .text.process_start
                0x0000000000203cdc       0x30 contiki-cc2538dk.a(process.o)
                0x0000000000203cdc                process_start
 .text.process_poll
                0x0000000000203d0c       0x18 contiki-cc2538dk.a(process.o)
                0x0000000000203d0c                process_poll
 .text.rtimer_set
                0x0000000000203d24       0x24 contiki-cc2538dk.a(rtimer.o)
                0x0000000000203d24                rtimer_set
 .text.rtimer_run_next
                0x0000000000203d48       0x28 contiki-cc2538dk.a(rtimer.o)
                0x0000000000203d48                rtimer_run_next
 .text.process_thread_serial_line_process
                0x0000000000203d70       0x98 contiki-cc2538dk.a(serial-line.o)
 .text.serial_line_input_byte
                0x0000000000203e08       0x44 contiki-cc2538dk.a(serial-line.o)
                0x0000000000203e08                serial_line_input_byte
 .text.serial_line_init
                0x0000000000203e4c       0x24 contiki-cc2538dk.a(serial-line.o)
                0x0000000000203e4c                serial_line_init
 .text.random_rand
                0x0000000000203e70       0x24 contiki-cc2538dk.a(random.o)
                0x0000000000203e70                random_rand
 .text.random_init
                0x0000000000203e94       0x7c contiki-cc2538dk.a(random.o)
                0x0000000000203e94                random_init
 .text.uip_ds6_prefix_add
                0x0000000000203f10       0x60 contiki-cc2538dk.a(uip-ds6.o)
                0x0000000000203f10                uip_ds6_prefix_add
 .text.uip_ds6_is_addr_onlink
                0x0000000000203f70       0x40 contiki-cc2538dk.a(uip-ds6.o)
                0x0000000000203f70                uip_ds6_is_addr_onlink
 .text.uip_ds6_addr_lookup
                0x0000000000203fb0       0x2c contiki-cc2538dk.a(uip-ds6.o)
                0x0000000000203fb0                uip_ds6_addr_lookup
 .text.uip_ds6_get_link_local
                0x0000000000203fdc       0x40 contiki-cc2538dk.a(uip-ds6.o)
                0x0000000000203fdc                uip_ds6_get_link_local
 .text.uip_ds6_maddr_add
                0x000000000020401c       0x4c contiki-cc2538dk.a(uip-ds6.o)
                0x000000000020401c                uip_ds6_maddr_add
 .text.uip_ds6_addr_add
                0x0000000000204068       0x98 contiki-cc2538dk.a(uip-ds6.o)
                0x0000000000204068                uip_ds6_addr_add
 .text.uip_ds6_maddr_lookup
                0x0000000000204100       0x2c contiki-cc2538dk.a(uip-ds6.o)
                0x0000000000204100                uip_ds6_maddr_lookup
 .text.uip_ds6_addr_rm
                0x000000000020412c       0x44 contiki-cc2538dk.a(uip-ds6.o)
                0x000000000020412c                uip_ds6_addr_rm
 .text.uip_ds6_periodic
                0x0000000000204170       0x50 contiki-cc2538dk.a(uip-ds6.o)
                0x0000000000204170                uip_ds6_periodic
 .text.uip_ds6_select_src
                0x00000000002041c0       0x98 contiki-cc2538dk.a(uip-ds6.o)
                0x00000000002041c0                uip_ds6_select_src
 .text.uip_ds6_compute_reachable_time
                0x0000000000204258       0x28 contiki-cc2538dk.a(uip-ds6.o)
                0x0000000000204258                uip_ds6_compute_reachable_time
 .text.uip_ds6_init
                0x0000000000204280       0xe0 contiki-cc2538dk.a(uip-ds6.o)
                0x0000000000204280                uip_ds6_init
 .text.call_route_callback
                0x0000000000204360       0x48 contiki-cc2538dk.a(uip-ds6-route.o)
 .text.uip_ds6_route_init
                0x00000000002043a8       0x48 contiki-cc2538dk.a(uip-ds6-route.o)
                0x00000000002043a8                uip_ds6_route_init
 .text.uip_ds6_route_nexthop
                0x00000000002043f0       0x1c contiki-cc2538dk.a(uip-ds6-route.o)
                0x00000000002043f0                uip_ds6_route_nexthop
 .text.uip_ds6_route_head
                0x000000000020440c        0xc contiki-cc2538dk.a(uip-ds6-route.o)
                0x000000000020440c                uip_ds6_route_head
 .text.uip_ds6_route_lookup
                0x0000000000204418       0x64 contiki-cc2538dk.a(uip-ds6-route.o)
                0x0000000000204418                uip_ds6_route_lookup
 .text.uip_ds6_route_rm
                0x000000000020447c       0x9c contiki-cc2538dk.a(uip-ds6-route.o)
                0x000000000020447c                uip_ds6_route_rm
 .text.rm_routelist
                0x0000000000204518       0x2c contiki-cc2538dk.a(uip-ds6-route.o)
 .text.uip_ds6_route_add
                0x0000000000204544      0x108 contiki-cc2538dk.a(uip-ds6-route.o)
                0x0000000000204544                uip_ds6_route_add
 .text.uip_ds6_defrt_rm
                0x000000000020464c       0x44 contiki-cc2538dk.a(uip-ds6-route.o)
                0x000000000020464c                uip_ds6_defrt_rm
 .text.uip_ds6_defrt_lookup
                0x0000000000204690       0x2c contiki-cc2538dk.a(uip-ds6-route.o)
                0x0000000000204690                uip_ds6_defrt_lookup
 .text.uip_ds6_defrt_add
                0x00000000002046bc       0x64 contiki-cc2538dk.a(uip-ds6-route.o)
                0x00000000002046bc                uip_ds6_defrt_add
 .text.uip_ds6_defrt_choose
                0x0000000000204720       0x30 contiki-cc2538dk.a(uip-ds6-route.o)
                0x0000000000204720                uip_ds6_defrt_choose
 .text.uip_ds6_defrt_periodic
                0x0000000000204750       0x30 contiki-cc2538dk.a(uip-ds6-route.o)
                0x0000000000204750                uip_ds6_defrt_periodic
 .text.upper_layer_chksum
                0x0000000000204780       0x54 contiki-cc2538dk.a(uip6.o)
 .text.ext_hdr_options_process
                0x00000000002047d4       0xa8 contiki-cc2538dk.a(uip6.o)
 .text.uip_add32
                0x000000000020487c       0x54 contiki-cc2538dk.a(uip6.o)
                0x000000000020487c                uip_add32
 .text.unlikely.uip_add_rcv_nxt
                0x00000000002048d0       0x2c contiki-cc2538dk.a(uip6.o)
 .text.uip_init
                0x00000000002048fc       0x6c contiki-cc2538dk.a(uip6.o)
                0x00000000002048fc                uip_init
 .text.remove_ext_hdr
                0x0000000000204968       0x5c contiki-cc2538dk.a(uip6.o)
                0x0000000000204968                remove_ext_hdr
 .text.uip_udp_new
                0x00000000002049c4       0x9c contiki-cc2538dk.a(uip6.o)
                0x00000000002049c4                uip_udp_new
 .text.uip_unlisten
                0x0000000000204a60       0x34 contiki-cc2538dk.a(uip6.o)
                0x0000000000204a60                uip_unlisten
 .text.uip_listen
                0x0000000000204a94       0x30 contiki-cc2538dk.a(uip6.o)
                0x0000000000204a94                uip_listen
 .text.uip_process
                0x0000000000204ac4      0xd9c contiki-cc2538dk.a(uip6.o)
                0x0000000000204ac4                uip_process
 .text.uip_send
                0x0000000000205860       0x4c contiki-cc2538dk.a(uip6.o)
                0x0000000000205860                uip_send
 .text.uip_ds6_nbr_rm
                0x00000000002058ac       0x20 contiki-cc2538dk.a(uip-ds6-nbr.o)
                0x00000000002058ac                uip_ds6_nbr_rm
 .text.uip_ds6_neighbors_init
                0x00000000002058cc       0x14 contiki-cc2538dk.a(uip-ds6-nbr.o)
                0x00000000002058cc                uip_ds6_neighbors_init
 .text.uip_ds6_nbr_add
                0x00000000002058e0       0x60 contiki-cc2538dk.a(uip-ds6-nbr.o)
                0x00000000002058e0                uip_ds6_nbr_add
 .text.uip_ds6_nbr_get_ll
                0x0000000000205940       0x10 contiki-cc2538dk.a(uip-ds6-nbr.o)
                0x0000000000205940                uip_ds6_nbr_get_ll
 .text.uip_ds6_nbr_lookup
                0x0000000000205950       0x38 contiki-cc2538dk.a(uip-ds6-nbr.o)
                0x0000000000205950                uip_ds6_nbr_lookup
 .text.uip_ds6_nbr_ll_lookup
                0x0000000000205988       0x10 contiki-cc2538dk.a(uip-ds6-nbr.o)
                0x0000000000205988                uip_ds6_nbr_ll_lookup
 .text.uip_ds6_link_neighbor_callback
                0x0000000000205998       0x2c contiki-cc2538dk.a(uip-ds6-nbr.o)
                0x0000000000205998                uip_ds6_link_neighbor_callback
 .text.uip_ds6_neighbor_periodic
                0x00000000002059c4      0x110 contiki-cc2538dk.a(uip-ds6-nbr.o)
                0x00000000002059c4                uip_ds6_neighbor_periodic
 .text.na_input
                0x0000000000205ad4      0x1cc contiki-cc2538dk.a(uip-nd6.o)
 .text.ns_input
                0x0000000000205ca0      0x258 contiki-cc2538dk.a(uip-nd6.o)
 .text.uip_nd6_ns_output
                0x0000000000205ef8      0x164 contiki-cc2538dk.a(uip-nd6.o)
                0x0000000000205ef8                uip_nd6_ns_output
 .text.uip_nd6_init
                0x000000000020605c       0x1c contiki-cc2538dk.a(uip-nd6.o)
                0x000000000020605c                uip_nd6_init
 .text.sicslowpan_init
                0x0000000000206078       0x24 contiki-cc2538dk.a(sicslowpan.o)
                0x0000000000206078                sicslowpan_init
 .text.set_packet_attrs
                0x000000000020609c       0x44 contiki-cc2538dk.a(sicslowpan.o)
 .text.compress_addr_64
                0x00000000002060e0       0x90 contiki-cc2538dk.a(sicslowpan.o)
 .text.addr_context_lookup_by_prefix
                0x0000000000206170       0x28 contiki-cc2538dk.a(sicslowpan.o)
 .text.send_packet
                0x0000000000206198       0x24 contiki-cc2538dk.a(sicslowpan.o)
 .text.packet_sent
                0x00000000002061bc       0x28 contiki-cc2538dk.a(sicslowpan.o)
 .text.uncompress_addr
                0x00000000002061e4       0x7c contiki-cc2538dk.a(sicslowpan.o)
 .text.output   0x0000000000206260      0x684 contiki-cc2538dk.a(sicslowpan.o)
 .text.input    0x00000000002068e4      0x5f4 contiki-cc2538dk.a(sicslowpan.o)
 .text.uip_debug_ipaddr_print
                0x0000000000206ed8       0x64 contiki-cc2538dk.a(uip-debug.o)
                0x0000000000206ed8                uip_debug_ipaddr_print
 .text.psock_send
                0x0000000000206f3c       0x98 contiki-cc2538dk.a(psock.o)
                0x0000000000206f3c                psock_send
 .text.psock_newdata
                0x0000000000206fd4       0x28 contiki-cc2538dk.a(psock.o)
                0x0000000000206fd4                psock_newdata
 .text.psock_readto
                0x0000000000206ffc       0xa4 contiki-cc2538dk.a(psock.o)
                0x0000000000206ffc                psock_readto
 .text.start_periodic_tcp_timer
                0x00000000002070a0       0x1c contiki-cc2538dk.a(tcpip.o)
 .text.tcpip_output
                0x00000000002070bc       0x14 contiki-cc2538dk.a(tcpip.o)
                0x00000000002070bc                tcpip_output
 .text.tcpip_set_outputfunc
                0x00000000002070d0        0xc contiki-cc2538dk.a(tcpip.o)
                0x00000000002070d0                tcpip_set_outputfunc
 .text.tcp_listen
                0x00000000002070dc       0x3c contiki-cc2538dk.a(tcpip.o)
                0x00000000002070dc                tcp_listen
 .text.tcp_attach
                0x0000000000207118       0x10 contiki-cc2538dk.a(tcpip.o)
                0x0000000000207118                tcp_attach
 .text.udp_new  0x0000000000207128       0x18 contiki-cc2538dk.a(tcpip.o)
                0x0000000000207128                udp_new
 .text.tcpip_icmp6_call
                0x0000000000207140       0x28 contiki-cc2538dk.a(tcpip.o)
                0x0000000000207140                tcpip_icmp6_call
 .text.tcpip_input
                0x0000000000207168       0x24 contiki-cc2538dk.a(tcpip.o)
                0x0000000000207168                tcpip_input
 .text.tcpip_ipv6_output
                0x000000000020718c      0x144 contiki-cc2538dk.a(tcpip.o)
                0x000000000020718c                tcpip_ipv6_output
 .text.process_thread_tcpip_process
                0x00000000002072d0      0x1e8 contiki-cc2538dk.a(tcpip.o)
 .text.tcpip_uipcall
                0x00000000002074b8       0x7c contiki-cc2538dk.a(tcpip.o)
                0x00000000002074b8                tcpip_uipcall
 .text.rpl_set_preferred_parent
                0x0000000000207534       0x28 contiki-cc2538dk.a(rpl-dag.o)
 .text.set_ip_from_prefix
                0x000000000020755c       0x2c contiki-cc2538dk.a(rpl-dag.o)
 .text.find_parent_any_dag_any_instance
                0x0000000000207588       0x1c contiki-cc2538dk.a(rpl-dag.o)
 .text.rpl_get_nbr
                0x00000000002075a4       0x28 contiki-cc2538dk.a(rpl-dag.o)
                0x00000000002075a4                rpl_get_nbr
 .text.rpl_dag_init
                0x00000000002075cc       0x14 contiki-cc2538dk.a(rpl-dag.o)
                0x00000000002075cc                rpl_dag_init
 .text.rpl_get_parent
                0x00000000002075e0       0x10 contiki-cc2538dk.a(rpl-dag.o)
                0x00000000002075e0                rpl_get_parent
 .text.rpl_get_parent_ipaddr
                0x00000000002075f0       0x18 contiki-cc2538dk.a(rpl-dag.o)
                0x00000000002075f0                rpl_get_parent_ipaddr
 .text.rpl_alloc_instance
                0x0000000000207608       0x34 contiki-cc2538dk.a(rpl-dag.o)
                0x0000000000207608                rpl_alloc_instance
 .text.rpl_add_parent
                0x000000000020763c       0x44 contiki-cc2538dk.a(rpl-dag.o)
                0x000000000020763c                rpl_add_parent
 .text.rpl_select_parent
                0x0000000000207680       0x6c contiki-cc2538dk.a(rpl-dag.o)
                0x0000000000207680                rpl_select_parent
 .text.rpl_remove_parent
                0x00000000002076ec       0x1c contiki-cc2538dk.a(rpl-dag.o)
                0x00000000002076ec                rpl_remove_parent
 .text.remove_parents.constprop.4
                0x0000000000207708       0x2c contiki-cc2538dk.a(rpl-dag.o)
 .text.rpl_get_any_dag
                0x0000000000207734       0x18 contiki-cc2538dk.a(rpl-dag.o)
                0x0000000000207734                rpl_get_any_dag
 .text.rpl_get_instance
                0x000000000020774c       0x20 contiki-cc2538dk.a(rpl-dag.o)
                0x000000000020774c                rpl_get_instance
 .text.rpl_set_root
                0x000000000020776c      0x108 contiki-cc2538dk.a(rpl-dag.o)
                0x000000000020776c                rpl_set_root
 .text.rpl_find_of
                0x0000000000207874       0x14 contiki-cc2538dk.a(rpl-dag.o)
                0x0000000000207874                rpl_find_of
 .text.rpl_join_instance
                0x0000000000207888      0x124 contiki-cc2538dk.a(rpl-dag.o)
                0x0000000000207888                rpl_join_instance
 .text.rpl_local_repair
                0x00000000002079ac       0x5c contiki-cc2538dk.a(rpl-dag.o)
                0x00000000002079ac                rpl_local_repair
 .text.rpl_recalculate_ranks
                0x0000000000207a08       0x3c contiki-cc2538dk.a(rpl-dag.o)
                0x0000000000207a08                rpl_recalculate_ranks
 .text.rpl_lock_parent
                0x0000000000207a44       0x10 contiki-cc2538dk.a(rpl-dag.o)
                0x0000000000207a44                rpl_lock_parent
 .text.new_dio_interval
                0x0000000000207a54       0x58 contiki-cc2538dk.a(rpl-timers.o)
 .text.handle_periodic_timer
                0x0000000000207aac       0x38 contiki-cc2538dk.a(rpl-timers.o)
 .text.set_dao_lifetime_timer
                0x0000000000207ae4       0x3c contiki-cc2538dk.a(rpl-timers.o)
 .text.handle_dio_timer
                0x0000000000207b20       0x80 contiki-cc2538dk.a(rpl-timers.o)
 .text.schedule_dao
                0x0000000000207ba0       0x54 contiki-cc2538dk.a(rpl-timers.o)
 .text.handle_dao_timer
                0x0000000000207bf4       0x58 contiki-cc2538dk.a(rpl-timers.o)
 .text.rpl_reset_periodic_timer
                0x0000000000207c4c       0x34 contiki-cc2538dk.a(rpl-timers.o)
                0x0000000000207c4c                rpl_reset_periodic_timer
 .text.rpl_schedule_probing
                0x0000000000207c80       0x30 contiki-cc2538dk.a(rpl-timers.o)
                0x0000000000207c80                rpl_schedule_probing
 .text.handle_probing_timer
                0x0000000000207cb0       0xd4 contiki-cc2538dk.a(rpl-timers.o)
 .text.rpl_verify_header
                0x0000000000207d84       0x98 contiki-cc2538dk.a(rpl-ext-header.)
                0x0000000000207d84                rpl_verify_header
 .text.rpl_update_header_empty
                0x0000000000207e1c      0x138 contiki-cc2538dk.a(rpl-ext-header.)
                0x0000000000207e1c                rpl_update_header_empty
 .text.rpl_update_header_final
                0x0000000000207f54       0x84 contiki-cc2538dk.a(rpl-ext-header.)
                0x0000000000207f54                rpl_update_header_final
 .text.rpl_invert_header
                0x0000000000207fd8       0x68 contiki-cc2538dk.a(rpl-ext-header.)
                0x0000000000207fd8                rpl_invert_header
 .text.rpl_insert_header
                0x0000000000208040       0x1c contiki-cc2538dk.a(rpl-ext-header.)
                0x0000000000208040                rpl_insert_header
 .text.rpl_get_mode
                0x000000000020805c        0xc contiki-cc2538dk.a(rpl.o)
                0x000000000020805c                rpl_get_mode
 .text.rpl_purge_routes
                0x0000000000208068       0x64 contiki-cc2538dk.a(rpl.o)
                0x0000000000208068                rpl_purge_routes
 .text.rpl_link_neighbor_callback
                0x00000000002080cc       0x70 contiki-cc2538dk.a(rpl.o)
                0x00000000002080cc                rpl_link_neighbor_callback
 .text.rpl_ipv6_neighbor_callback
                0x000000000020813c       0x28 contiki-cc2538dk.a(rpl.o)
                0x000000000020813c                rpl_ipv6_neighbor_callback
 .text.rpl_init
                0x0000000000208164       0x58 contiki-cc2538dk.a(rpl.o)
                0x0000000000208164                rpl_init
 .text.queuebuf_init
                0x00000000002081bc       0x1c contiki-cc2538dk.a(queuebuf.o)
                0x00000000002081bc                queuebuf_init
 .text.queuebuf_numfree
                0x00000000002081d8        0xc contiki-cc2538dk.a(queuebuf.o)
                0x00000000002081d8                queuebuf_numfree
 .text.queuebuf_new_from_packetbuf
                0x00000000002081e4       0x44 contiki-cc2538dk.a(queuebuf.o)
                0x00000000002081e4                queuebuf_new_from_packetbuf
 .text.queuebuf_free
                0x0000000000208228       0x2c contiki-cc2538dk.a(queuebuf.o)
                0x0000000000208228                queuebuf_free
 .text.queuebuf_to_packetbuf
                0x0000000000208254       0x30 contiki-cc2538dk.a(queuebuf.o)
                0x0000000000208254                queuebuf_to_packetbuf
 .text.index_from_key
                0x0000000000208284       0x20 contiki-cc2538dk.a(nbr-table.o)
 .text.index_from_lladdr
                0x00000000002082a4       0x40 contiki-cc2538dk.a(nbr-table.o)
 .text.key_from_item
                0x00000000002082e4       0x2c contiki-cc2538dk.a(nbr-table.o)
 .text.nbr_get_bit.constprop.0
                0x0000000000208310       0x30 contiki-cc2538dk.a(nbr-table.o)
 .text.nbr_table_register
                0x0000000000208340       0x28 contiki-cc2538dk.a(nbr-table.o)
                0x0000000000208340                nbr_table_register
 .text.nbr_table_head
                0x0000000000208368       0x34 contiki-cc2538dk.a(nbr-table.o)
                0x0000000000208368                nbr_table_head
 .text.nbr_table_add_lladdr
                0x000000000020839c      0x118 contiki-cc2538dk.a(nbr-table.o)
                0x000000000020839c                nbr_table_add_lladdr
 .text.nbr_table_remove
                0x00000000002084b4       0x2c contiki-cc2538dk.a(nbr-table.o)
                0x00000000002084b4                nbr_table_remove
 .text.nbr_table_lock
                0x00000000002084e0       0x14 contiki-cc2538dk.a(nbr-table.o)
                0x00000000002084e0                nbr_table_lock
 .text.nbr_table_unlock
                0x00000000002084f4       0x14 contiki-cc2538dk.a(nbr-table.o)
                0x00000000002084f4                nbr_table_unlock
 .text.packetbuf_compact
                0x0000000000208508       0x34 contiki-cc2538dk.a(packetbuf.o)
                0x0000000000208508                packetbuf_compact
 .text.packetbuf_copyto
                0x000000000020853c       0x50 contiki-cc2538dk.a(packetbuf.o)
                0x000000000020853c                packetbuf_copyto
 .text.packetbuf_hdrreduce
                0x000000000020858c       0x28 contiki-cc2538dk.a(packetbuf.o)
                0x000000000020858c                packetbuf_hdrreduce
 .text.packetbuf_set_datalen
                0x00000000002085b4        0xc contiki-cc2538dk.a(packetbuf.o)
                0x00000000002085b4                packetbuf_set_datalen
 .text.packetbuf_dataptr
                0x00000000002085c0       0x14 contiki-cc2538dk.a(packetbuf.o)
                0x00000000002085c0                packetbuf_dataptr
 .text.packetbuf_hdrptr
                0x00000000002085d4       0x14 contiki-cc2538dk.a(packetbuf.o)
                0x00000000002085d4                packetbuf_hdrptr
 .text.packetbuf_datalen
                0x00000000002085e8        0xc contiki-cc2538dk.a(packetbuf.o)
                0x00000000002085e8                packetbuf_datalen
 .text.packetbuf_hdrlen
                0x00000000002085f4       0x1c contiki-cc2538dk.a(packetbuf.o)
                0x00000000002085f4                packetbuf_hdrlen
 .text.packetbuf_totlen
                0x0000000000208610       0x14 contiki-cc2538dk.a(packetbuf.o)
                0x0000000000208610                packetbuf_totlen
 .text.packetbuf_hdralloc
                0x0000000000208624       0x28 contiki-cc2538dk.a(packetbuf.o)
                0x0000000000208624                packetbuf_hdralloc
 .text.packetbuf_attr_clear
                0x000000000020864c       0x34 contiki-cc2538dk.a(packetbuf.o)
                0x000000000020864c                packetbuf_attr_clear
 .text.packetbuf_clear
                0x0000000000208680       0x30 contiki-cc2538dk.a(packetbuf.o)
                0x0000000000208680                packetbuf_clear
 .text.packetbuf_copyfrom
                0x00000000002086b0       0x2c contiki-cc2538dk.a(packetbuf.o)
                0x00000000002086b0                packetbuf_copyfrom
 .text.packetbuf_attr_copyto
                0x00000000002086dc       0x34 contiki-cc2538dk.a(packetbuf.o)
                0x00000000002086dc                packetbuf_attr_copyto
 .text.packetbuf_attr_copyfrom
                0x0000000000208710       0x34 contiki-cc2538dk.a(packetbuf.o)
                0x0000000000208710                packetbuf_attr_copyfrom
 .text.packetbuf_set_attr
                0x0000000000208744       0x10 contiki-cc2538dk.a(packetbuf.o)
                0x0000000000208744                packetbuf_set_attr
 .text.packetbuf_attr
                0x0000000000208754        0xc contiki-cc2538dk.a(packetbuf.o)
                0x0000000000208754                packetbuf_attr
 .text.packetbuf_set_addr
                0x0000000000208760       0x18 contiki-cc2538dk.a(packetbuf.o)
                0x0000000000208760                packetbuf_set_addr
 .text.packetbuf_addr
                0x0000000000208778       0x10 contiki-cc2538dk.a(packetbuf.o)
                0x0000000000208778                packetbuf_addr
 .text.packetbuf_holds_broadcast
                0x0000000000208788       0x10 contiki-cc2538dk.a(packetbuf.o)
                0x0000000000208788                packetbuf_holds_broadcast
 .text.netstack_init
                0x0000000000208798       0x2c contiki-cc2538dk.a(netstack.o)
                0x0000000000208798                netstack_init
 .text.create_frame.isra.0
                0x00000000002087c4      0x110 contiki-cc2538dk.a(framer-802154.o)
 .text.input_packet
                0x00000000002088d4       0x10 contiki-cc2538dk.a(csma.o)
 .text.on       0x00000000002088e4       0x10 contiki-cc2538dk.a(csma.o)
 .text.off      0x00000000002088f4       0x10 contiki-cc2538dk.a(csma.o)
 .text.channel_check_interval
                0x0000000000208904       0x10 contiki-cc2538dk.a(csma.o)
 .text.transmit_packet_list
                0x0000000000208914       0x24 contiki-cc2538dk.a(csma.o)
 .text.send_packet
                0x0000000000208938      0x148 contiki-cc2538dk.a(csma.o)
 .text.init     0x0000000000208a80       0x24 contiki-cc2538dk.a(csma.o)
 .text.free_packet
                0x0000000000208aa4       0x90 contiki-cc2538dk.a(csma.o)
 .text.packet_sent
                0x0000000000208b34       0xf8 contiki-cc2538dk.a(csma.o)
 .text.frame802154_parse
                0x0000000000208c2c      0x114 contiki-cc2538dk.a(frame802154.o)
                0x0000000000208c2c                frame802154_parse
 .text.framer_canonical_create_and_secure
                0x0000000000208d40       0x30 contiki-cc2538dk.a(framer.o)
                0x0000000000208d40                framer_canonical_create_and_secure
 .text.init     0x0000000000208d70       0x40 contiki-cc2538dk.a(contikimac.o)
 .text.on       0x0000000000208db0       0x28 contiki-cc2538dk.a(contikimac.o)
 .text.off      0x0000000000208dd8       0x34 contiki-cc2538dk.a(contikimac.o)
 .text.recv_burst_off
                0x0000000000208e0c       0x14 contiki-cc2538dk.a(contikimac.o)
 .text.powercycle_turn_radio_off
                0x0000000000208e20       0x1c contiki-cc2538dk.a(contikimac.o)
 .text.turn_off
                0x0000000000208e3c       0x34 contiki-cc2538dk.a(contikimac.o)
 .text.turn_on  0x0000000000208e70       0x40 contiki-cc2538dk.a(contikimac.o)
 .text.schedule_powercycle_fixed
                0x0000000000208eb0       0x38 contiki-cc2538dk.a(contikimac.o)
 .text.input_packet
                0x0000000000208ee8       0x94 contiki-cc2538dk.a(contikimac.o)
 .text.send_packet.isra.7
                0x0000000000208f7c      0x204 contiki-cc2538dk.a(contikimac.o)
 .text.qsend_list
                0x0000000000209180       0xc0 contiki-cc2538dk.a(contikimac.o)
 .text.powercycle
                0x0000000000209240      0x200 contiki-cc2538dk.a(contikimac.o)
 .text.input    0x0000000000209440       0x10 contiki-cc2538dk.a(nullsec.o)
 .text.send     0x0000000000209450       0x20 contiki-cc2538dk.a(nullsec.o)
 .text.coap_init_connection
                0x0000000000209470       0x28 contiki-cc2538dk.a(er-coap.o)
                0x0000000000209470                coap_init_connection
 .text.coap_get_mid
                0x0000000000209498       0x10 contiki-cc2538dk.a(er-coap.o)
                0x0000000000209498                coap_get_mid
 .text.coap_serialize_message
                0x00000000002094a8      0x2dc contiki-cc2538dk.a(er-coap.o)
                0x00000000002094a8                coap_serialize_message
 .text.coap_send_message
                0x0000000000209784       0x4c contiki-cc2538dk.a(er-coap.o)
                0x0000000000209784                coap_send_message
 .text.coap_parse_message
                0x00000000002097d0      0x2cc contiki-cc2538dk.a(er-coap.o)
                0x00000000002097d0                coap_parse_message
 .text.stimer_expired
                0x0000000000209a9c       0x20 contiki-cc2538dk.a(stimer.o)
                0x0000000000209a9c                stimer_expired
 .text.echo_reply_input
                0x0000000000209abc       0xd8 contiki-cc2538dk.a(uip-icmp6.o)
 .text.echo_request_input
                0x0000000000209b94      0x100 contiki-cc2538dk.a(uip-icmp6.o)
 .text.uip_icmp6_input
                0x0000000000209c94       0x38 contiki-cc2538dk.a(uip-icmp6.o)
                0x0000000000209c94                uip_icmp6_input
 .text.uip_icmp6_register_input_handler
                0x0000000000209ccc        0xc contiki-cc2538dk.a(uip-icmp6.o)
                0x0000000000209ccc                uip_icmp6_register_input_handler
 .text.uip_icmp6_error_output
                0x0000000000209cd8      0x148 contiki-cc2538dk.a(uip-icmp6.o)
                0x0000000000209cd8                uip_icmp6_error_output
 .text.uip_icmp6_send
                0x0000000000209e20       0x90 contiki-cc2538dk.a(uip-icmp6.o)
                0x0000000000209e20                uip_icmp6_send
 .text.uip_icmp6_init
                0x0000000000209eb0       0x1c contiki-cc2538dk.a(uip-icmp6.o)
                0x0000000000209eb0                uip_icmp6_init
 .text.uip_udp_packet_send
                0x0000000000209ecc       0x34 contiki-cc2538dk.a(uip-udp-packet.)
                0x0000000000209ecc                uip_udp_packet_send
 .text.dao_ack_input
                0x0000000000209f00        0xc contiki-cc2538dk.a(rpl-icmp6.o)
 .text.dio_input
                0x0000000000209f0c      0x278 contiki-cc2538dk.a(rpl-icmp6.o)
 .text.dis_output
                0x000000000020a184       0x54 contiki-cc2538dk.a(rpl-icmp6.o)
                0x000000000020a184                dis_output
 .text.dio_output
                0x000000000020a1d8      0x20c contiki-cc2538dk.a(rpl-icmp6.o)
                0x000000000020a1d8                dio_output
 .text.dis_input
                0x000000000020a3e4       0x34 contiki-cc2538dk.a(rpl-icmp6.o)
 .text.dao_output_target
                0x000000000020a418       0xe4 contiki-cc2538dk.a(rpl-icmp6.o)
                0x000000000020a418                dao_output_target
 .text.dao_output
                0x000000000020a4fc       0x60 contiki-cc2538dk.a(rpl-icmp6.o)
                0x000000000020a4fc                dao_output
 .text.dao_ack_output
                0x000000000020a55c       0x34 contiki-cc2538dk.a(rpl-icmp6.o)
                0x000000000020a55c                dao_ack_output
 .text.dao_input
                0x000000000020a590      0x224 contiki-cc2538dk.a(rpl-icmp6.o)
 .text.rpl_icmp6_register_handlers
                0x000000000020a7b4       0x30 contiki-cc2538dk.a(rpl-icmp6.o)
                0x000000000020a7b4                rpl_icmp6_register_handlers
 .text.mac_sequence_is_duplicate
                0x000000000020a7e4       0x38 contiki-cc2538dk.a(mac-sequence.o)
                0x000000000020a7e4                mac_sequence_is_duplicate
 .text.mac_sequence_register_seqno
                0x000000000020a81c       0x68 contiki-cc2538dk.a(mac-sequence.o)
                0x000000000020a81c                mac_sequence_register_seqno
 .text          0x000000000020a884       0x2c /usr/lib/gcc/arm-none-eabi/4.8/armv7-m/libgcc.a(_aeabi_uldivmod.o)
                0x000000000020a884                __aeabi_uldivmod
 .text          0x000000000020a8b0       0x60 /usr/lib/gcc/arm-none-eabi/4.8/armv7-m/libgcc.a(bpabi.o)
                0x000000000020a8b0                __gnu_ldivmod_helper
                0x000000000020a8e0                __gnu_uldivmod_helper
 .text          0x000000000020a910        0x4 /usr/lib/gcc/arm-none-eabi/4.8/armv7-m/libgcc.a(_dvmd_tls.o)
                0x000000000020a910                __aeabi_ldiv0
                0x000000000020a910                __aeabi_idiv0
 .text          0x000000000020a914      0x2a0 /usr/lib/gcc/arm-none-eabi/4.8/armv7-m/libgcc.a(_divdi3.o)
                0x000000000020a914                __divdi3
 .text          0x000000000020abb4      0x290 /usr/lib/gcc/arm-none-eabi/4.8/armv7-m/libgcc.a(_udivdi3.o)
                0x000000000020abb4                __udivdi3
 .text.atoi     0x000000000020ae44        0x8 /usr/lib/gcc/arm-none-eabi/4.8/../../../arm-none-eabi/lib/armv7-m/libc.a(lib_a-atoi.o)
                0x000000000020ae44                atoi
 .text.memchr   0x000000000020ae4c       0x94 /usr/lib/gcc/arm-none-eabi/4.8/../../../arm-none-eabi/lib/armv7-m/libc.a(lib_a-memchr-stub.o)
                0x000000000020ae4c                memchr
 .text.memcmp   0x000000000020aee0       0x68 /usr/lib/gcc/arm-none-eabi/4.8/../../../arm-none-eabi/lib/armv7-m/libc.a(lib_a-memcmp.o)
                0x000000000020aee0                memcmp
 .text          0x000000000020af48       0xec /usr/lib/gcc/arm-none-eabi/4.8/../../../arm-none-eabi/lib/armv7-m/libc.a(lib_a-memcpy.o)
                0x000000000020af48                memcpy
 .text.memmove  0x000000000020b034       0xcc /usr/lib/gcc/arm-none-eabi/4.8/../../../arm-none-eabi/lib/armv7-m/libc.a(lib_a-memmove.o)
                0x000000000020b034                memmove
 .text.memset   0x000000000020b100       0x94 /usr/lib/gcc/arm-none-eabi/4.8/../../../arm-none-eabi/lib/armv7-m/libc.a(lib_a-memset.o)
                0x000000000020b100                memset
 .text.strchr   0x000000000020b194       0xf4 /usr/lib/gcc/arm-none-eabi/4.8/../../../arm-none-eabi/lib/armv7-m/libc.a(lib_a-strchr.o)
                0x000000000020b194                strchr
 .text.strcpy   0x000000000020b288       0xbc /usr/lib/gcc/arm-none-eabi/4.8/../../../arm-none-eabi/lib/armv7-m/libc.a(lib_a-strcpy.o)
                0x000000000020b288                strcpy
 .text.strlen   0x000000000020b344       0x5c /usr/lib/gcc/arm-none-eabi/4.8/../../../arm-none-eabi/lib/armv7-m/libc.a(lib_a-strlen.o)
                0x000000000020b344                strlen
 .text.strncmp  0x000000000020b3a0       0xb4 /usr/lib/gcc/arm-none-eabi/4.8/../../../arm-none-eabi/lib/armv7-m/libc.a(lib_a-strncmp.o)
                0x000000000020b3a0                strncmp
 .text.strncpy  0x000000000020b454       0x68 /usr/lib/gcc/arm-none-eabi/4.8/../../../arm-none-eabi/lib/armv7-m/libc.a(lib_a-strncpy.o)
                0x000000000020b454                strncpy
 .text._strtol_r
                0x000000000020b4bc      0x124 /usr/lib/gcc/arm-none-eabi/4.8/../../../arm-none-eabi/lib/armv7-m/libc.a(lib_a-strtol.o)
                0x000000000020b4bc                _strtol_r
 .text.strtol   0x000000000020b5e0       0x1c /usr/lib/gcc/arm-none-eabi/4.8/../../../arm-none-eabi/lib/armv7-m/libc.a(lib_a-strtol.o)
                0x000000000020b5e0                strtol
 .text.default_handler
                0x000000000020b5fc        0x2 obj_cc2538dk/startup-gcc.o
                0x000000000020b5fc                default_handler
                0x000000000020b5fc                usb_isr
 .text.nmi_handler
                0x000000000020b5fe        0x6 obj_cc2538dk/startup-gcc.o
                0x000000000020b5fe                nmi_handler
 .text.res_post_handler
                0x000000000020b604        0x6 obj_cc2538dk/res-toggle.o
 .text.coap_get_rest_method
                0x000000000020b60a        0xe contiki-cc2538dk.a(er-coap-engine.)
                0x000000000020b60a                coap_get_rest_method
 .text.leds_get
                0x000000000020b618        0x4 contiki-cc2538dk.a(leds.o)
                0x000000000020b618                leds_get
 .text.fade     0x000000000020b61c       0x54 contiki-cc2538dk.a(contiki-main.o)
 .text.config   0x000000000020b670       0x40 contiki-cc2538dk.a(button-sensor.o)
 .text.status   0x000000000020b6b0        0x4 contiki-cc2538dk.a(als-sensor.o)
 .text.clock_isr
                0x000000000020b6b4        0x4 contiki-cc2538dk.a(clock.o)
                0x000000000020b6b4                clock_isr
 .text.rtimer_arch_init
                0x000000000020b6b8        0x2 contiki-cc2538dk.a(rtimer-arch.o)
                0x000000000020b6b8                rtimer_arch_init
 .text.uart0_isr
                0x000000000020b6ba        0x6 contiki-cc2538dk.a(uart.o)
                0x000000000020b6ba                uart0_isr
 .text.uart1_isr
                0x000000000020b6c0        0x6 contiki-cc2538dk.a(uart.o)
                0x000000000020b6c0                uart1_isr
 .text.cpu_cpsie
                0x000000000020b6c6        0x8 contiki-cc2538dk.a(cpu.o)
                0x000000000020b6c6                cpu_cpsie
 .text.cpu_cpsid
                0x000000000020b6ce        0x8 contiki-cc2538dk.a(cpu.o)
                0x000000000020b6ce                cpu_cpsid
 .text.gpio_port_a_isr
                0x000000000020b6d6        0x6 contiki-cc2538dk.a(gpio.o)
                0x000000000020b6d6                gpio_port_a_isr
 .text.gpio_port_b_isr
                0x000000000020b6dc        0x6 contiki-cc2538dk.a(gpio.o)
                0x000000000020b6dc                gpio_port_b_isr
 .text.gpio_port_c_isr
                0x000000000020b6e2        0x6 contiki-cc2538dk.a(gpio.o)
                0x000000000020b6e2                gpio_port_c_isr
 .text.gpio_port_d_isr
                0x000000000020b6e8        0x6 contiki-cc2538dk.a(gpio.o)
                0x000000000020b6e8                gpio_port_d_isr
 .text.send     0x000000000020b6ee       0x12 contiki-cc2538dk.a(cc2538-rf.o)
 .text.dbg_send_bytes
                0x000000000020b700       0x22 contiki-cc2538dk.a(dbg.o)
                0x000000000020b700                dbg_send_bytes
 .text.puts     0x000000000020b722       0x20 contiki-cc2538dk.a(dbg.o)
                0x000000000020b722                puts
 .text.slip_arch_writeb
                0x000000000020b742        0x8 contiki-cc2538dk.a(slip-arch.o)
                0x000000000020b742                slip_arch_writeb
 .text.configure
                0x000000000020b74a        0x4 contiki-cc2538dk.a(cc2538-temp-sen)
 .text.status   0x000000000020b74e        0x4 contiki-cc2538dk.a(cc2538-temp-sen)
 .text.value    0x000000000020b752       0x34 contiki-cc2538dk.a(cc2538-temp-sen)
 .text.configure
                0x000000000020b786        0x4 contiki-cc2538dk.a(vdd3-sensor.o)
 .text.status   0x000000000020b78a        0x4 contiki-cc2538dk.a(vdd3-sensor.o)
 .text.value    0x000000000020b78e       0x2a contiki-cc2538dk.a(vdd3-sensor.o)
 .text.write_str
                0x000000000020b7b8       0x10 contiki-cc2538dk.a(dbg-printf.o)
 .text.buffer_str
                0x000000000020b7c8       0x28 contiki-cc2538dk.a(dbg-snprintf.o)
 .text.snprintf
                0x000000000020b7f0       0x1a contiki-cc2538dk.a(dbg-snprintf.o)
                0x000000000020b7f0                snprintf
 .text.autostart_start
                0x000000000020b80a       0x14 contiki-cc2538dk.a(autostart.o)
                0x000000000020b80a                autostart_start
 .text.energest_init
                0x000000000020b81e        0x2 contiki-cc2538dk.a(energest.o)
                0x000000000020b81e                energest_init
 .text.etimer_set
                0x000000000020b820       0x12 contiki-cc2538dk.a(etimer.o)
                0x000000000020b820                etimer_set
 .text.etimer_reset
                0x000000000020b832       0x12 contiki-cc2538dk.a(etimer.o)
                0x000000000020b832                etimer_reset
 .text.etimer_restart
                0x000000000020b844       0x12 contiki-cc2538dk.a(etimer.o)
                0x000000000020b844                etimer_restart
 .text.etimer_expired
                0x000000000020b856        0xc contiki-cc2538dk.a(etimer.o)
                0x000000000020b856                etimer_expired
 .text.etimer_expiration_time
                0x000000000020b862        0x6 contiki-cc2538dk.a(etimer.o)
                0x000000000020b862                etimer_expiration_time
 .text.call_process
                0x000000000020b868        0xc contiki-cc2538dk.a(process.o)
 .text.rtimer_init
                0x000000000020b874        0x4 contiki-cc2538dk.a(rtimer.o)
                0x000000000020b874                rtimer_init
 .text.timer_set
                0x000000000020b878        0xe contiki-cc2538dk.a(timer.o)
                0x000000000020b878                timer_set
 .text.timer_reset
                0x000000000020b886        0xa contiki-cc2538dk.a(timer.o)
                0x000000000020b886                timer_reset
 .text.timer_restart
                0x000000000020b890        0xc contiki-cc2538dk.a(timer.o)
                0x000000000020b890                timer_restart
 .text.timer_expired
                0x000000000020b89c       0x1c contiki-cc2538dk.a(timer.o)
                0x000000000020b89c                timer_expired
 .text.list_init
                0x000000000020b8b8        0x6 contiki-cc2538dk.a(list.o)
                0x000000000020b8b8                list_init
 .text.list_head
                0x000000000020b8be        0x4 contiki-cc2538dk.a(list.o)
                0x000000000020b8be                list_head
 .text.list_tail
                0x000000000020b8c2        0xe contiki-cc2538dk.a(list.o)
                0x000000000020b8c2                list_tail
 .text.list_remove
                0x000000000020b8d0       0x28 contiki-cc2538dk.a(list.o)
                0x000000000020b8d0                list_remove
 .text.list_add
                0x000000000020b8f8       0x1e contiki-cc2538dk.a(list.o)
                0x000000000020b8f8                list_add
 .text.list_push
                0x000000000020b916       0x12 contiki-cc2538dk.a(list.o)
                0x000000000020b916                list_push
 .text.list_length
                0x000000000020b928        0xe contiki-cc2538dk.a(list.o)
                0x000000000020b928                list_length
 .text.list_item_next
                0x000000000020b936        0x6 contiki-cc2538dk.a(list.o)
                0x000000000020b936                list_item_next
 .text.memb_init
                0x000000000020b93c       0x20 contiki-cc2538dk.a(memb.o)
                0x000000000020b93c                memb_init
 .text.memb_alloc
                0x000000000020b95c       0x28 contiki-cc2538dk.a(memb.o)
                0x000000000020b95c                memb_alloc
 .text.memb_free
                0x000000000020b984       0x2c contiki-cc2538dk.a(memb.o)
                0x000000000020b984                memb_free
 .text.memb_inmemb
                0x000000000020b9b0       0x1c contiki-cc2538dk.a(memb.o)
                0x000000000020b9b0                memb_inmemb
 .text.memb_numfree
                0x000000000020b9cc       0x1c contiki-cc2538dk.a(memb.o)
                0x000000000020b9cc                memb_numfree
 .text.ringbuf_init
                0x000000000020b9e8        0xe contiki-cc2538dk.a(ringbuf.o)
                0x000000000020b9e8                ringbuf_init
 .text.ringbuf_put
                0x000000000020b9f6       0x26 contiki-cc2538dk.a(ringbuf.o)
                0x000000000020b9f6                ringbuf_put
 .text.ringbuf_get
                0x000000000020ba1c       0x20 contiki-cc2538dk.a(ringbuf.o)
                0x000000000020ba1c                ringbuf_get
 .text.uip_ds6_list_loop
                0x000000000020ba3c       0x4a contiki-cc2538dk.a(uip-ds6.o)
                0x000000000020ba3c                uip_ds6_list_loop
 .text.uip_ds6_maddr_rm
                0x000000000020ba86        0x8 contiki-cc2538dk.a(uip-ds6.o)
                0x000000000020ba86                uip_ds6_maddr_rm
 .text.uip_ds6_set_addr_iid
                0x000000000020ba8e       0x12 contiki-cc2538dk.a(uip-ds6.o)
                0x000000000020ba8e                uip_ds6_set_addr_iid
 .text.get_match_length
                0x000000000020baa0       0x36 contiki-cc2538dk.a(uip-ds6.o)
                0x000000000020baa0                get_match_length
 .text.uip_ds6_route_next
                0x000000000020bad6        0x8 contiki-cc2538dk.a(uip-ds6-route.o)
                0x000000000020bad6                uip_ds6_route_next
 .text.rm_routelist_callback
                0x000000000020bade        0x4 contiki-cc2538dk.a(uip-ds6-route.o)
 .text.chksum   0x000000000020bae2       0x38 contiki-cc2538dk.a(uip6.o)
 .text.uip_icmp6chksum
                0x000000000020bb1a        0x6 contiki-cc2538dk.a(uip6.o)
                0x000000000020bb1a                uip_icmp6chksum
 .text.uip_tcpchksum
                0x000000000020bb20        0x6 contiki-cc2538dk.a(uip6.o)
                0x000000000020bb20                uip_tcpchksum
 .text.uip_udpchksum
                0x000000000020bb26        0x6 contiki-cc2538dk.a(uip6.o)
                0x000000000020bb26                uip_udpchksum
 .text.uip_htonl
                0x000000000020bb2c       0x14 contiki-cc2538dk.a(uip6.o)
                0x000000000020bb2c                uip_htonl
 .text.uip_ds6_nbr_ipaddr_from_lladdr
                0x000000000020bb40        0x4 contiki-cc2538dk.a(uip-ds6-nbr.o)
                0x000000000020bb40                uip_ds6_nbr_ipaddr_from_lladdr
 .text.uip_ds6_nbr_lladdr_from_ipaddr
                0x000000000020bb44       0x12 contiki-cc2538dk.a(uip-ds6-nbr.o)
                0x000000000020bb44                uip_ds6_nbr_lladdr_from_ipaddr
 .text.psock_datalen
                0x000000000020bb56        0xa contiki-cc2538dk.a(psock.o)
                0x000000000020bb56                psock_datalen
 .text.psock_init
                0x000000000020bb60       0x16 contiki-cc2538dk.a(psock.o)
                0x000000000020bb60                psock_init
 .text.lollipop_greater_than
                0x000000000020bb76       0x34 contiki-cc2538dk.a(rpl-dag.o)
 .text.check_prefix
                0x000000000020bbaa       0x58 contiki-cc2538dk.a(rpl-dag.o)
 .text.rpl_set_prefix
                0x000000000020bc02       0x6e contiki-cc2538dk.a(rpl-dag.o)
                0x000000000020bc02                rpl_set_prefix
 .text.rpl_set_default_route
                0x000000000020bc70       0x42 contiki-cc2538dk.a(rpl-dag.o)
                0x000000000020bc70                rpl_set_default_route
 .text.rpl_find_parent
                0x000000000020bcb2       0x16 contiki-cc2538dk.a(rpl-dag.o)
                0x000000000020bcb2                rpl_find_parent
 .text.rpl_find_parent_any_dag
                0x000000000020bcc8       0x24 contiki-cc2538dk.a(rpl-dag.o)
                0x000000000020bcc8                rpl_find_parent_any_dag
 .text.rpl_select_dag
                0x000000000020bcec      0x152 contiki-cc2538dk.a(rpl-dag.o)
                0x000000000020bcec                rpl_select_dag
 .text.rpl_nullify_parent
                0x000000000020be3e       0x48 contiki-cc2538dk.a(rpl-dag.o)
                0x000000000020be3e                rpl_nullify_parent
 .text.nbr_callback
                0x000000000020be86        0x4 contiki-cc2538dk.a(rpl-dag.o)
 .text.rpl_free_dag
                0x000000000020be8a       0x2e contiki-cc2538dk.a(rpl-dag.o)
                0x000000000020be8a                rpl_free_dag
 .text.rpl_move_parent
                0x000000000020beb8       0x48 contiki-cc2538dk.a(rpl-dag.o)
                0x000000000020beb8                rpl_move_parent
 .text.rpl_repair_root
                0x000000000020bf00       0x48 contiki-cc2538dk.a(rpl-dag.o)
                0x000000000020bf00                rpl_repair_root
 .text.rpl_alloc_dag
                0x000000000020bf48       0x48 contiki-cc2538dk.a(rpl-dag.o)
                0x000000000020bf48                rpl_alloc_dag
 .text.rpl_process_parent_event
                0x000000000020bf90       0x60 contiki-cc2538dk.a(rpl-dag.o)
                0x000000000020bf90                rpl_process_parent_event
 .text.rpl_add_dag
                0x000000000020bff0      0x100 contiki-cc2538dk.a(rpl-dag.o)
                0x000000000020bff0                rpl_add_dag
 .text.rpl_process_dio
                0x000000000020c0f0      0x29e contiki-cc2538dk.a(rpl-dag.o)
                0x000000000020c0f0                rpl_process_dio
 .text.rpl_reset_dio_timer
                0x000000000020c38e       0x1c contiki-cc2538dk.a(rpl-timers.o)
                0x000000000020c38e                rpl_reset_dio_timer
 .text.rpl_schedule_dao
                0x000000000020c3aa        0x8 contiki-cc2538dk.a(rpl-timers.o)
                0x000000000020c3aa                rpl_schedule_dao
 .text.rpl_remove_routes
                0x000000000020c3b2       0x1e contiki-cc2538dk.a(rpl.o)
                0x000000000020c3b2                rpl_remove_routes
 .text.rpl_remove_routes_by_nexthop
                0x000000000020c3d0       0x36 contiki-cc2538dk.a(rpl.o)
                0x000000000020c3d0                rpl_remove_routes_by_nexthop
 .text.rpl_add_route
                0x000000000020c406       0x28 contiki-cc2538dk.a(rpl.o)
                0x000000000020c406                rpl_add_route
 .text.reset    0x000000000020c42e        0x2 contiki-cc2538dk.a(rpl-mrhof.o)
 .text.update_metric_container
                0x000000000020c430        0x6 contiki-cc2538dk.a(rpl-mrhof.o)
 .text.calculate_rank
                0x000000000020c436       0x34 contiki-cc2538dk.a(rpl-mrhof.o)
 .text.neighbor_link_callback
                0x000000000020c46a       0x44 contiki-cc2538dk.a(rpl-mrhof.o)
 .text.best_dag
                0x000000000020c4ae       0x2a contiki-cc2538dk.a(rpl-mrhof.o)
 .text.best_parent
                0x000000000020c4d8       0x58 contiki-cc2538dk.a(rpl-mrhof.o)
 .text.queuebuf_update_attr_from_packetbuf
                0x000000000020c530        0xc contiki-cc2538dk.a(queuebuf.o)
                0x000000000020c530                queuebuf_update_attr_from_packetbuf
 .text.queuebuf_update_from_packetbuf
                0x000000000020c53c       0x1c contiki-cc2538dk.a(queuebuf.o)
                0x000000000020c53c                queuebuf_update_from_packetbuf
 .text.queuebuf_attr
                0x000000000020c558        0xc contiki-cc2538dk.a(queuebuf.o)
                0x000000000020c558                queuebuf_attr
 .text.nbr_set_bit
                0x000000000020c564       0x34 contiki-cc2538dk.a(nbr-table.o)
 .text.item_from_key
                0x000000000020c598       0x22 contiki-cc2538dk.a(nbr-table.o)
 .text.nbr_table_next
                0x000000000020c5ba       0x2e contiki-cc2538dk.a(nbr-table.o)
                0x000000000020c5ba                nbr_table_next
 .text.nbr_table_get_from_lladdr
                0x000000000020c5e8       0x32 contiki-cc2538dk.a(nbr-table.o)
                0x000000000020c5e8                nbr_table_get_from_lladdr
 .text.nbr_table_get_lladdr
                0x000000000020c61a        0xc contiki-cc2538dk.a(nbr-table.o)
                0x000000000020c61a                nbr_table_get_lladdr
 .text.linkaddr_copy
                0x000000000020c626        0xa contiki-cc2538dk.a(linkaddr.o)
                0x000000000020c626                linkaddr_copy
 .text.linkaddr_cmp
                0x000000000020c630       0x12 contiki-cc2538dk.a(linkaddr.o)
                0x000000000020c630                linkaddr_cmp
 .text.parse    0x000000000020c642       0x92 contiki-cc2538dk.a(framer-802154.o)
 .text.create   0x000000000020c6d4        0x6 contiki-cc2538dk.a(framer-802154.o)
 .text.hdr_length
                0x000000000020c6da        0x6 contiki-cc2538dk.a(framer-802154.o)
 .text.field_len
                0x000000000020c6e0       0x70 contiki-cc2538dk.a(frame802154.o)
 .text.frame802154_hdrlen
                0x000000000020c750       0x2c contiki-cc2538dk.a(frame802154.o)
                0x000000000020c750                frame802154_hdrlen
 .text.frame802154_create
                0x000000000020c77c       0xc2 contiki-cc2538dk.a(frame802154.o)
                0x000000000020c77c                frame802154_create
 .text.mac_call_sent_callback
                0x000000000020c83e       0x10 contiki-cc2538dk.a(mac.o)
                0x000000000020c83e                mac_call_sent_callback
 .text.duty_cycle
                0x000000000020c84e        0x4 contiki-cc2538dk.a(contikimac.o)
 .text.qsend_packet
                0x000000000020c852       0x22 contiki-cc2538dk.a(contikimac.o)
 .text.bootstrap
                0x000000000020c874        0x6 contiki-cc2538dk.a(nullsec.o)
 .text.on_frame_created
                0x000000000020c87a        0x4 contiki-cc2538dk.a(nullsec.o)
 .text.get_overhead
                0x000000000020c87e        0x4 contiki-cc2538dk.a(nullsec.o)
 .text.coap_parse_int_option
                0x000000000020c882       0x18 contiki-cc2538dk.a(er-coap.o)
 .text.coap_merge_multi_option
                0x000000000020c89a       0x30 contiki-cc2538dk.a(er-coap.o)
 .text.coap_get_variable
                0x000000000020c8ca       0x6a contiki-cc2538dk.a(er-coap.o)
 .text.coap_set_option_header
                0x000000000020c934       0x6a contiki-cc2538dk.a(er-coap.o)
 .text.coap_serialize_int_option
                0x000000000020c99e       0x60 contiki-cc2538dk.a(er-coap.o)
 .text.coap_serialize_array_option.part.0
                0x000000000020c9fe       0x20 contiki-cc2538dk.a(er-coap.o)
 .text.coap_serialize_array_option
                0x000000000020ca1e       0x72 contiki-cc2538dk.a(er-coap.o)
 .text.coap_init_message
                0x000000000020ca90       0x1a contiki-cc2538dk.a(er-coap.o)
                0x000000000020ca90                coap_init_message
 .text.coap_get_query_variable
                0x000000000020caaa       0x26 contiki-cc2538dk.a(er-coap.o)
                0x000000000020caaa                coap_get_query_variable
 .text.coap_get_post_variable
                0x000000000020cad0       0x1e contiki-cc2538dk.a(er-coap.o)
                0x000000000020cad0                coap_get_post_variable
 .text.coap_set_status_code
                0x000000000020caee        0xc contiki-cc2538dk.a(er-coap.o)
                0x000000000020caee                coap_set_status_code
 .text.coap_set_token
                0x000000000020cafa       0x16 contiki-cc2538dk.a(er-coap.o)
                0x000000000020cafa                coap_set_token
 .text.coap_get_header_content_format
                0x000000000020cb10       0x18 contiki-cc2538dk.a(er-coap.o)
                0x000000000020cb10                coap_get_header_content_format
 .text.coap_set_header_content_format
                0x000000000020cb28        0xe contiki-cc2538dk.a(er-coap.o)
                0x000000000020cb28                coap_set_header_content_format
 .text.coap_get_header_accept
                0x000000000020cb36       0x1a contiki-cc2538dk.a(er-coap.o)
                0x000000000020cb36                coap_get_header_accept
 .text.coap_get_header_max_age
                0x000000000020cb50       0x10 contiki-cc2538dk.a(er-coap.o)
                0x000000000020cb50                coap_get_header_max_age
 .text.coap_set_header_max_age
                0x000000000020cb60        0xe contiki-cc2538dk.a(er-coap.o)
                0x000000000020cb60                coap_set_header_max_age
 .text.coap_set_header_etag
                0x000000000020cb6e       0x22 contiki-cc2538dk.a(er-coap.o)
                0x000000000020cb6e                coap_set_header_etag
 .text.coap_get_header_if_match
                0x000000000020cb90       0x1c contiki-cc2538dk.a(er-coap.o)
                0x000000000020cb90                coap_get_header_if_match
 .text.coap_get_header_if_none_match
                0x000000000020cbac        0x8 contiki-cc2538dk.a(er-coap.o)
                0x000000000020cbac                coap_get_header_if_none_match
 .text.coap_get_header_uri_host
                0x000000000020cbb4       0x18 contiki-cc2538dk.a(er-coap.o)
                0x000000000020cbb4                coap_get_header_uri_host
 .text.coap_get_header_uri_path
                0x000000000020cbcc       0x18 contiki-cc2538dk.a(er-coap.o)
                0x000000000020cbcc                coap_get_header_uri_path
 .text.coap_get_header_uri_query
                0x000000000020cbe4       0x16 contiki-cc2538dk.a(er-coap.o)
                0x000000000020cbe4                coap_get_header_uri_query
 .text.coap_set_header_location_query
                0x000000000020cbfa       0x20 contiki-cc2538dk.a(er-coap.o)
                0x000000000020cbfa                coap_set_header_location_query
 .text.coap_set_header_location_path
                0x000000000020cc1a       0x40 contiki-cc2538dk.a(er-coap.o)
                0x000000000020cc1a                coap_set_header_location_path
 .text.coap_set_header_observe
                0x000000000020cc5a        0xe contiki-cc2538dk.a(er-coap.o)
                0x000000000020cc5a                coap_set_header_observe
 .text.coap_get_header_block2
                0x000000000020cc68       0x32 contiki-cc2538dk.a(er-coap.o)
                0x000000000020cc68                coap_get_header_block2
 .text.coap_set_header_block2
                0x000000000020cc9a       0x32 contiki-cc2538dk.a(er-coap.o)
                0x000000000020cc9a                coap_set_header_block2
 .text.coap_get_header_size2
                0x000000000020cccc       0x1a contiki-cc2538dk.a(er-coap.o)
                0x000000000020cccc                coap_get_header_size2
 .text.coap_set_header_size2
                0x000000000020cce6       0x10 contiki-cc2538dk.a(er-coap.o)
                0x000000000020cce6                coap_set_header_size2
 .text.coap_get_payload
                0x000000000020ccf6       0x12 contiki-cc2538dk.a(er-coap.o)
                0x000000000020ccf6                coap_get_payload
 .text.coap_set_payload
                0x000000000020cd08       0x14 contiki-cc2538dk.a(er-coap.o)
                0x000000000020cd08                coap_set_payload
 .text.stimer_set
                0x000000000020cd1c        0xe contiki-cc2538dk.a(stimer.o)
                0x000000000020cd1c                stimer_set
 .text.get32    0x000000000020cd2a       0x18 contiki-cc2538dk.a(rpl-icmp6.o)
 .text.set32    0x000000000020cd42       0x12 contiki-cc2538dk.a(rpl-icmp6.o)
 .text.get16    0x000000000020cd54        0xc contiki-cc2538dk.a(rpl-icmp6.o)
 .text.set16    0x000000000020cd60        0xa contiki-cc2538dk.a(rpl-icmp6.o)
 *(SORT(.rodata*))
 *fill*         0x000000000020cd6a        0x2 00000000
 .rodata.autostart_processes
                0x000000000020cd6c        0xc borderest.co
                0x000000000020cd6c                autostart_processes
 .rodata.rpl_interface
                0x000000000020cd78        0x8 obj_cc2538dk/slip-bridge.o
                0x000000000020cd78                rpl_interface
 .rodata.coap_rest_implementation
                0x000000000020cd80      0x10c contiki-cc2538dk.a(er-coap-engine.)
                0x000000000020cd80                coap_rest_implementation
 .rodata.button_select_sensor
                0x000000000020ce8c       0x10 contiki-cc2538dk.a(button-sensor.o)
                0x000000000020ce8c                button_select_sensor
 .rodata.button_up_sensor
                0x000000000020ce9c       0x10 contiki-cc2538dk.a(button-sensor.o)
                0x000000000020ce9c                button_up_sensor
 .rodata.button_left_sensor
                0x000000000020ceac       0x10 contiki-cc2538dk.a(button-sensor.o)
                0x000000000020ceac                button_left_sensor
 .rodata.button_right_sensor
                0x000000000020cebc       0x10 contiki-cc2538dk.a(button-sensor.o)
                0x000000000020cebc                button_right_sensor
 .rodata.button_down_sensor
                0x000000000020cecc       0x10 contiki-cc2538dk.a(button-sensor.o)
                0x000000000020cecc                button_down_sensor
 .rodata.als_sensor
                0x000000000020cedc       0x10 contiki-cc2538dk.a(als-sensor.o)
                0x000000000020cedc                als_sensor
 .rodata.uart_regs
                0x000000000020ceec       0x58 contiki-cc2538dk.a(uart.o)
 .rodata.cc2538_rf_driver
                0x000000000020cf44       0x38 contiki-cc2538dk.a(cc2538-rf.o)
                0x000000000020cf44                cc2538_rf_driver
 .rodata.output_power
                0x000000000020cf7c       0x70 contiki-cc2538dk.a(cc2538-rf.o)
 .rodata.cc2538_temp_sensor
                0x000000000020cfec       0x10 contiki-cc2538dk.a(cc2538-temp-sen)
                0x000000000020cfec                cc2538_temp_sensor
 .rodata.vdd3_sensor
                0x000000000020cffc       0x10 contiki-cc2538dk.a(vdd3-sensor.o)
                0x000000000020cffc                vdd3_sensor
 .rodata.sicslowpan_driver
                0x000000000020d00c        0xc contiki-cc2538dk.a(sicslowpan.o)
                0x000000000020d00c                sicslowpan_driver
 .rodata.framer_802154
                0x000000000020d018       0x10 contiki-cc2538dk.a(framer-802154.o)
                0x000000000020d018                framer_802154
 .rodata.csma_driver
                0x000000000020d028       0x1c contiki-cc2538dk.a(csma.o)
                0x000000000020d028                csma_driver
 .rodata.contikimac_driver
                0x000000000020d044       0x20 contiki-cc2538dk.a(contikimac.o)
                0x000000000020d044                contikimac_driver
 .rodata.nullsec_driver
                0x000000000020d064       0x18 contiki-cc2538dk.a(nullsec.o)
                0x000000000020d064                nullsec_driver
 .rodata._ctype_
                0x000000000020d07c      0x104 /usr/lib/gcc/arm-none-eabi/4.8/../../../arm-none-eabi/lib/armv7-m/libc.a(lib_a-ctype_.o)
                0x000000000020d07c                _ctype_
 .rodata.str1.4
                0x000000000020d180        0x4 /usr/lib/gcc/arm-none-eabi/4.8/../../../arm-none-eabi/lib/armv7-m/libc.a(lib_a-impure.o)
 .rodata.str1.1
                0x000000000020d184       0xcf borderest.co
                                         0xd3 (size before relaxing)
 .rodata.str1.1
                0x000000000020d253       0xa1 obj_cc2538dk/slip-bridge.o
 .rodata.str1.1
                0x000000000020d2f4       0x7a obj_cc2538dk/res-leds.o
                                         0x7f (size before relaxing)
 .rodata.str1.1
                0x000000000020d36e       0x1d obj_cc2538dk/res-toggle.o
 .rodata.str1.1
                0x000000000020d38b       0x64 obj_cc2538dk/res-hello.o
 .rodata.http_index_html
                0x000000000020d3ef        0xc obj_cc2538dk/httpd-simple.o
                0x000000000020d3ef                http_index_html
 .rodata.http_header_404
                0x000000000020d3fb       0x5d obj_cc2538dk/httpd-simple.o
                0x000000000020d3fb                http_header_404
 .rodata.http_header_200
                0x000000000020d458       0x56 obj_cc2538dk/httpd-simple.o
                0x000000000020d458                http_header_200
 .rodata.http_content_type_html
                0x000000000020d4ae       0x1c obj_cc2538dk/httpd-simple.o
                0x000000000020d4ae                http_content_type_html
 .rodata.str1.1
                0x000000000020d4ca       0x68 obj_cc2538dk/httpd-simple.o
 .rodata.http_get
                0x000000000020d532        0x5 obj_cc2538dk/httpd-simple.o
                0x000000000020d532                http_get
 .rodata.str1.1
                0x000000000020d537       0x66 contiki-cc2538dk.a(er-coap-engine.)
 .rodata.str1.1
                0x000000000020d59d       0x11 contiki-cc2538dk.a(er-coap-observe)
 .rodata.str1.1
                0x000000000020d5ae        0x9 contiki-cc2538dk.a(er-coap-res-wel)
                                         0x19 (size before relaxing)
 .rodata.str1.1
                0x000000000020d5b7        0xc contiki-cc2538dk.a(rest-engine.o)
 .rodata.str1.1
                0x000000000020d5c3       0x71 contiki-cc2538dk.a(contiki-main.o)
 .rodata.str1.1
                0x000000000020d634        0x8 contiki-cc2538dk.a(sensors.o)
 .rodata.str1.1
                0x000000000020d63c        0x7 contiki-cc2538dk.a(button-sensor.o)
 .rodata.str1.1
                0x000000000020d643        0x4 contiki-cc2538dk.a(als-sensor.o)
 .rodata.str1.1
                0x000000000020d647       0x11 contiki-cc2538dk.a(cc2538-rf.o)
 .rodata.str1.1
                0x000000000020d658       0x21 contiki-cc2538dk.a(slip.o)
 .rodata.str1.1
                0x000000000020d679       0x14 contiki-cc2538dk.a(cc2538-temp-sen)
 .rodata.str1.1
                0x000000000020d68d        0x5 contiki-cc2538dk.a(vdd3-sensor.o)
 .rodata.str1.1
                0x000000000020d692       0x24 contiki-cc2538dk.a(strformat.o)
                                         0x37 (size before relaxing)
 .rodata.buffer.4135
                0x000000000020d6b6       0x10 contiki-cc2538dk.a(strformat.o)
 .rodata.buffer.4144
                0x000000000020d6c6       0x10 contiki-cc2538dk.a(strformat.o)
 .rodata.str1.1
                0x000000000020d6d6        0xc contiki-cc2538dk.a(etimer.o)
 .rodata.str1.1
                0x000000000020d6e2        0xf contiki-cc2538dk.a(ctimer.o)
 .rodata.str1.1
                0x000000000020d6f1        0xe contiki-cc2538dk.a(serial-line.o)
 .rodata        0x000000000020d6ff        0x2 contiki-cc2538dk.a(sicslowpan.o)
 .rodata.ttl_values
                0x000000000020d701        0x4 contiki-cc2538dk.a(sicslowpan.o)
 .rodata.unc_llconf
                0x000000000020d705        0x4 contiki-cc2538dk.a(sicslowpan.o)
                0x000000000020d705                unc_llconf
 .rodata.llprefix
                0x000000000020d709        0x2 contiki-cc2538dk.a(sicslowpan.o)
                0x000000000020d709                llprefix
 .rodata.unc_mxconf
                0x000000000020d70b        0x4 contiki-cc2538dk.a(sicslowpan.o)
                0x000000000020d70b                unc_mxconf
 .rodata.str1.1
                0x000000000020d70f        0xb contiki-cc2538dk.a(sicslowpan.o)
 .rodata.unc_ctxconf
                0x000000000020d71a        0x4 contiki-cc2538dk.a(sicslowpan.o)
                0x000000000020d71a                unc_ctxconf
 .rodata.str1.1
                0x000000000020d71e       0x23 contiki-cc2538dk.a(uip-debug.o)
                                         0x29 (size before relaxing)
 .rodata.str1.1
                0x000000000020d741        0xd contiki-cc2538dk.a(tcpip.o)
 .rodata.linkaddr_null
                0x000000000020d74e        0x8 contiki-cc2538dk.a(linkaddr.o)
                0x000000000020d74e                linkaddr_null
 .rodata.str1.1
                0x000000000020d756        0x5 contiki-cc2538dk.a(csma.o)
 .rodata.str1.1
                0x000000000020d75b        0xb contiki-cc2538dk.a(contikimac.o)
 .rodata.str1.1
                0x000000000020d766        0x8 contiki-cc2538dk.a(nullsec.o)
 .rodata.str1.1
                0x000000000020d76e       0x89 contiki-cc2538dk.a(er-coap.o)
                                         0x8a (size before relaxing)
                0x000000000020d7f7                _etext = .

.glue_7         0x000000000020d7f8        0x0
 .glue_7        0x000000000020d7f8        0x0 linker stubs

.glue_7t        0x000000000020d7f8        0x0
 .glue_7t       0x000000000020d7f8        0x0 linker stubs

.vfp11_veneer   0x000000000020d7f8        0x0
 .vfp11_veneer  0x000000000020d7f8        0x0 linker stubs

.v4_bx          0x000000000020d7f8        0x0
 .v4_bx         0x000000000020d7f8        0x0 linker stubs

.iplt           0x000000000020d7f8        0x0
 .iplt          0x000000000020d7f8        0x0 obj_cc2538dk/startup-gcc.o

.socdata        0x0000000020000000       0x40
 *(SORT(.udma_channel_control_table))
 .udma_channel_control_table
                0x0000000020000000       0x40 contiki-cc2538dk.a(udma.o)

.data           0x0000000020000040      0x6e6 load address 0x000000000020d7f8
                0x0000000020000040                _data = .
 *(SORT(.data*))
 .data.impure_data
                0x0000000020000040      0x428 /usr/lib/gcc/arm-none-eabi/4.8/../../../arm-none-eabi/lib/armv7-m/libc.a(lib_a-impure.o)
 .data.borderest_process
                0x0000000020000468       0x10 borderest.co
                0x0000000020000468                borderest_process
 .data.webserver_nogui_process
                0x0000000020000478       0x10 borderest.co
                0x0000000020000478                webserver_nogui_process
 .data.res_leds
                0x0000000020000488       0x24 obj_cc2538dk/res-leds.o
                0x0000000020000488                res_leds
 .data.res_toggle
                0x00000000200004ac       0x24 obj_cc2538dk/res-toggle.o
                0x00000000200004ac                res_toggle
 .data.res_hello
                0x00000000200004d0       0x24 obj_cc2538dk/res-hello.o
                0x00000000200004d0                res_hello
 .data.conns    0x00000000200004f4        0xc obj_cc2538dk/httpd-simple.o
 .data.coap_engine
                0x0000000020000500       0x10 contiki-cc2538dk.a(er-coap-engine.)
                0x0000000020000500                coap_engine
 .data.transactions_memb
                0x0000000020000510        0xc contiki-cc2538dk.a(er-coap-transac)
 .data.observers_memb
                0x000000002000051c        0xc contiki-cc2538dk.a(er-coap-observe)
 .data.res_well_known_core
                0x0000000020000528       0x24 contiki-cc2538dk.a(er-coap-res-wel)
                0x0000000020000528                res_well_known_core
 .data.rest_engine_process
                0x000000002000054c       0x10 contiki-cc2538dk.a(rest-engine.o)
                0x000000002000054c                rest_engine_process
 .data.sensors_process
                0x000000002000055c       0x10 contiki-cc2538dk.a(sensors.o)
                0x000000002000055c                sensors_process
 .data.sensors  0x000000002000056c       0x24 contiki-cc2538dk.a(smartrf-sensors)
                0x000000002000056c                sensors
 .data.cc2538_rf_process
                0x0000000020000590       0x10 contiki-cc2538dk.a(cc2538-rf.o)
                0x0000000020000590                cc2538_rf_process
 .data.slip_process
                0x00000000200005a0       0x10 contiki-cc2538dk.a(slip.o)
                0x00000000200005a0                slip_process
 .data.ctxt     0x00000000200005b0        0x8 contiki-cc2538dk.a(dbg-printf.o)
 .data.etimer_process
                0x00000000200005b8       0x10 contiki-cc2538dk.a(etimer.o)
                0x00000000200005b8                etimer_process
 .data.ctimer_process
                0x00000000200005c8       0x10 contiki-cc2538dk.a(ctimer.o)
                0x00000000200005c8                ctimer_process
 .data.serial_line_process
                0x00000000200005d8       0x10 contiki-cc2538dk.a(serial-line.o)
                0x00000000200005d8                serial_line_process
 .data.defaultroutermemb
                0x00000000200005e8        0xc contiki-cc2538dk.a(uip-ds6-route.o)
 .data.nbr_routes_struct
                0x00000000200005f4       0x10 contiki-cc2538dk.a(uip-ds6-route.o)
 .data.routememb
                0x0000000020000604        0xc contiki-cc2538dk.a(uip-ds6-route.o)
 .data.neighborroutememb
                0x0000000020000610        0xc contiki-cc2538dk.a(uip-ds6-route.o)
 .data.ds6_neighbors
                0x000000002000061c        0x4 contiki-cc2538dk.a(uip-ds6-nbr.o)
                0x000000002000061c                ds6_neighbors
 .data.ds6_neighbors_struct
                0x0000000020000620       0x10 contiki-cc2538dk.a(uip-ds6-nbr.o)
 .data.ns_input_handler
                0x0000000020000630        0xc contiki-cc2538dk.a(uip-nd6.o)
 .data.na_input_handler
                0x000000002000063c        0xc contiki-cc2538dk.a(uip-nd6.o)
 .data.tcpip_process
                0x0000000020000648       0x10 contiki-cc2538dk.a(tcpip.o)
                0x0000000020000648                tcpip_process
 .data.rpl_parents
                0x0000000020000658        0x4 contiki-cc2538dk.a(rpl-dag.o)
                0x0000000020000658                rpl_parents
 .data.rpl_parents_struct
                0x000000002000065c       0x10 contiki-cc2538dk.a(rpl-dag.o)
 .data.rpl_mrhof
                0x000000002000066c       0x1c contiki-cc2538dk.a(rpl-mrhof.o)
                0x000000002000066c                rpl_mrhof
 .data.bufmem   0x0000000020000688        0xc contiki-cc2538dk.a(queuebuf.o)
 .data.buframmem
                0x0000000020000694        0xc contiki-cc2538dk.a(queuebuf.o)
 .data.neighbor_addr_mem
                0x00000000200006a0        0xc contiki-cc2538dk.a(nbr-table.o)
 .data.metadata_memb
                0x00000000200006ac        0xc contiki-cc2538dk.a(csma.o)
 .data.neighbor_memb
                0x00000000200006b8        0xc contiki-cc2538dk.a(csma.o)
 .data.packet_memb
                0x00000000200006c4        0xc contiki-cc2538dk.a(csma.o)
 .data.coap_error_message
                0x00000000200006d0        0x4 contiki-cc2538dk.a(er-coap.o)
                0x00000000200006d0                coap_error_message
 .data.echo_request_handler
                0x00000000200006d4        0xc contiki-cc2538dk.a(uip-icmp6.o)
 .data.echo_reply_handler
                0x00000000200006e0        0xc contiki-cc2538dk.a(uip-icmp6.o)
 .data.dao_ack_handler
                0x00000000200006ec        0xc contiki-cc2538dk.a(rpl-icmp6.o)
 .data.dis_handler
                0x00000000200006f8        0xc contiki-cc2538dk.a(rpl-icmp6.o)
 .data.dao_handler
                0x0000000020000704        0xc contiki-cc2538dk.a(rpl-icmp6.o)
 .data.dio_handler
                0x0000000020000710        0xc contiki-cc2538dk.a(rpl-icmp6.o)
 .data.__ctype_ptr__
                0x000000002000071c        0x4 /usr/lib/gcc/arm-none-eabi/4.8/../../../arm-none-eabi/lib/armv7-m/libc.a(lib_a-ctype_.o)
                0x000000002000071c                __ctype_ptr__
 .data._impure_ptr
                0x0000000020000720        0x4 /usr/lib/gcc/arm-none-eabi/4.8/../../../arm-none-eabi/lib/armv7-m/libc.a(lib_a-impure.o)
                0x0000000020000720                _impure_ptr
 .data.rf_channel
                0x0000000020000724        0x1 contiki-cc2538dk.a(cc2538-rf.o)
 .data.dao_sequence
                0x0000000020000725        0x1 contiki-cc2538dk.a(rpl-icmp6.o)
                0x0000000020000726                _edata = .
                0x000000000020d7f8                _ldata = LOADADDR (.data)

.igot.plt       0x0000000020000728        0x0 load address 0x000000000020dede
 .igot.plt      0x0000000020000728        0x0 obj_cc2538dk/startup-gcc.o

.ARM.exidx      0x000000000020dee0        0x8
 *(SORT(.ARM.exidx*))
 .ARM.exidx     0x000000000020dee0        0x8 /usr/lib/gcc/arm-none-eabi/4.8/armv7-m/libgcc.a(_divdi3.o)
 .ARM.exidx     0x000000000020dee8        0x0 /usr/lib/gcc/arm-none-eabi/4.8/armv7-m/libgcc.a(_udivdi3.o)
                                          0x8 (size before relaxing)

.bss            0x0000000020000728     0x2408
                0x0000000020000728                _bss = .
 *(SORT(.bss*))
 .bss.rt_ticks_startup
                0x0000000020000728        0x8 contiki-cc2538dk.a(clock.o)
 .bss.rt_ticks_epoch
                0x0000000020000730        0x8 contiki-cc2538dk.a(clock.o)
 .bss.nbr.8354  0x0000000020000738        0x4 borderest.co
 .bss.et.8401   0x000000002000073c       0x10 borderest.co
 .bss.blen      0x000000002000074c        0x4 borderest.co
 .bss.r.8353    0x0000000020000750        0x4 borderest.co
 .bss.length.5687
                0x0000000020000754        0x4 obj_cc2538dk/res-leds.o
 .bss.conns_memb_mem
                0x0000000020000758       0xf0 obj_cc2538dk/httpd-simple.o
 .bss.transaction.8533
                0x0000000020000848        0x4 contiki-cc2538dk.a(er-coap-engine.)
 .bss.response.8532
                0x000000002000084c       0xa0 contiki-cc2538dk.a(er-coap-engine.)
 .bss.service_cbk
                0x00000000200008ec        0x4 contiki-cc2538dk.a(er-coap-engine.)
 .bss.message.8531
                0x00000000200008f0       0xa0 contiki-cc2538dk.a(er-coap-engine.)
 .bss.transactions_list_list
                0x0000000020000990        0x4 contiki-cc2538dk.a(er-coap-transac)
 .bss.transaction_handler_process
                0x0000000020000994        0x4 contiki-cc2538dk.a(er-coap-transac)
 .bss.transactions_memb_memb_mem
                0x0000000020000998      0x2e0 contiki-cc2538dk.a(er-coap-transac)
 .bss.observers_memb_memb_mem
                0x0000000020000c78       0xc0 contiki-cc2538dk.a(er-coap-observe)
 .bss.observers_list_list
                0x0000000020000d38        0x4 contiki-cc2538dk.a(er-coap-observe)
 .bss.restful_periodic_services_list
                0x0000000020000d3c        0x4 contiki-cc2538dk.a(rest-engine.o)
 .bss.restful_services_list
                0x0000000020000d40        0x4 contiki-cc2538dk.a(rest-engine.o)
 .bss.i.4713    0x0000000020000d44        0x4 contiki-cc2538dk.a(sensors.o)
 .bss.events.4714
                0x0000000020000d48        0x4 contiki-cc2538dk.a(sensors.o)
 .bss.debouncetimer
                0x0000000020000d4c        0x8 contiki-cc2538dk.a(button-sensor.o)
 .bss.next_trigger
                0x0000000020000d54        0x4 contiki-cc2538dk.a(rtimer-arch.o)
 .bss.input_handler
                0x0000000020000d58        0x8 contiki-cc2538dk.a(uart.o)
 .bss.interrupt_disable
                0x0000000020000d60        0x4 contiki-cc2538dk.a(nvic.o)
 .bss.interrupt_pend
                0x0000000020000d64        0x4 contiki-cc2538dk.a(nvic.o)
 .bss.interrupt_unpend
                0x0000000020000d68        0x4 contiki-cc2538dk.a(nvic.o)
 .bss.interrupt_enable
                0x0000000020000d6c        0x4 contiki-cc2538dk.a(nvic.o)
 .bss.gpio_callbacks
                0x0000000020000d70       0x80 contiki-cc2538dk.a(gpio.o)
 .bss.ioc_sel   0x0000000020000df0        0x4 contiki-cc2538dk.a(ioc.o)
 .bss.ioc_over  0x0000000020000df4        0x4 contiki-cc2538dk.a(ioc.o)
 .bss.notification_process
                0x0000000020000df8        0x4 contiki-cc2538dk.a(crypto.o)
 .bss.periph_permit_pm1_funcs
                0x0000000020000dfc        0xc contiki-cc2538dk.a(lpm.o)
 .bss.input_callback
                0x0000000020000e08        0x4 contiki-cc2538dk.a(slip.o)
 .bss.timerlist
                0x0000000020000e0c        0x4 contiki-cc2538dk.a(etimer.o)
 .bss.next_expiration
                0x0000000020000e10        0x4 contiki-cc2538dk.a(etimer.o)
 .bss.ctimer_list_list
                0x0000000020000e14        0x4 contiki-cc2538dk.a(ctimer.o)
 .bss.receiver.5307
                0x0000000020000e18        0x4 contiki-cc2538dk.a(process.o)
 .bss.p.5308    0x0000000020000e1c        0x4 contiki-cc2538dk.a(process.o)
 .bss.process_current
                0x0000000020000e20        0x4 contiki-cc2538dk.a(process.o)
                0x0000000020000e20                process_current
 .bss.process_list
                0x0000000020000e24        0x4 contiki-cc2538dk.a(process.o)
                0x0000000020000e24                process_list
 .bss.events    0x0000000020000e28      0x180 contiki-cc2538dk.a(process.o)
 .bss.data.5306
                0x0000000020000fa8        0x4 contiki-cc2538dk.a(process.o)
 .bss.next_rtimer
                0x0000000020000fac        0x4 contiki-cc2538dk.a(rtimer.o)
 .bss.ptr.4698  0x0000000020000fb0        0x4 contiki-cc2538dk.a(serial-line.o)
 .bss.rxbuf     0x0000000020000fb4        0x8 contiki-cc2538dk.a(serial-line.o)
 .bss.locmaddr  0x0000000020000fbc        0x4 contiki-cc2538dk.a(uip-ds6.o)
 .bss.locprefix
                0x0000000020000fc0        0x4 contiki-cc2538dk.a(uip-ds6.o)
 .bss.locaddr   0x0000000020000fc4        0x4 contiki-cc2538dk.a(uip-ds6.o)
 .bss.defaultroutermemb_memb_mem
                0x0000000020000fc8       0x40 contiki-cc2538dk.a(uip-ds6-route.o)
 .bss.num_routes
                0x0000000020001008        0x4 contiki-cc2538dk.a(uip-ds6-route.o)
 .bss.defaultrouterlist_list
                0x000000002000100c        0x4 contiki-cc2538dk.a(uip-ds6-route.o)
 .bss._nbr_routes_mem
                0x0000000020001010       0xa0 contiki-cc2538dk.a(uip-ds6-route.o)
 .bss.routelist_list
                0x00000000200010b0        0x4 contiki-cc2538dk.a(uip-ds6-route.o)
 .bss.routememb_memb_mem
                0x00000000200010b4      0x320 contiki-cc2538dk.a(uip-ds6-route.o)
 .bss.neighborroutememb_memb_mem
                0x00000000200013d4       0xa0 contiki-cc2538dk.a(uip-ds6-route.o)
 .bss.notificationlist_list
                0x0000000020001474        0x4 contiki-cc2538dk.a(uip-ds6-route.o)
 .bss._ds6_neighbors_mem
                0x0000000020001478      0x320 contiki-cc2538dk.a(uip-ds6-nbr.o)
 .bss.defrt     0x0000000020001798        0x4 contiki-cc2538dk.a(uip-nd6.o)
 .bss.nbr       0x000000002000179c        0x4 contiki-cc2538dk.a(uip-nd6.o)
 .bss.nd6_opt_llao
                0x00000000200017a0        0x4 contiki-cc2538dk.a(uip-nd6.o)
 .bss.addr      0x00000000200017a4        0x4 contiki-cc2538dk.a(uip-nd6.o)
 .bss.context   0x00000000200017a8        0x4 contiki-cc2538dk.a(sicslowpan.o)
 .bss.last_rssi
                0x00000000200017ac        0x4 contiki-cc2538dk.a(sicslowpan.o)
 .bss.hc06_ptr  0x00000000200017b0        0x4 contiki-cc2538dk.a(sicslowpan.o)
 .bss.reass_timer
                0x00000000200017b4        0x8 contiki-cc2538dk.a(sicslowpan.o)
 .bss.packetbuf_ptr
                0x00000000200017bc        0x4 contiki-cc2538dk.a(sicslowpan.o)
 .bss.packetbuf_payload_len
                0x00000000200017c0        0x4 contiki-cc2538dk.a(sicslowpan.o)
 .bss.last_tx_status
                0x00000000200017c4        0x4 contiki-cc2538dk.a(sicslowpan.o)
 .bss.sicslowpan_aligned_buf
                0x00000000200017c8       0x8c contiki-cc2538dk.a(sicslowpan.o)
 .bss.callback  0x0000000020001854        0x4 contiki-cc2538dk.a(sicslowpan.o)
 .bss.s         0x0000000020001858       0x44 contiki-cc2538dk.a(tcpip.o)
 .bss.periodic  0x000000002000189c       0x10 contiki-cc2538dk.a(tcpip.o)
 .bss.outputfunc
                0x00000000200018ac        0x4 contiki-cc2538dk.a(tcpip.o)
 .bss._rpl_parents_mem
                0x00000000200018b0      0x190 contiki-cc2538dk.a(rpl-dag.o)
 .bss.periodic_timer
                0x0000000020001a40       0x20 contiki-cc2538dk.a(rpl-timers.o)
 .bss.bufmem_memb_mem
                0x0000000020001a60       0x10 contiki-cc2538dk.a(queuebuf.o)
 .bss.nbr_table_keys_list
                0x0000000020001a70        0x4 contiki-cc2538dk.a(nbr-table.o)
 .bss.neighbor_addr_mem_memb_mem
                0x0000000020001a74       0xf0 contiki-cc2538dk.a(nbr-table.o)
 .bss.all_tables
                0x0000000020001b64       0x20 contiki-cc2538dk.a(nbr-table.o)
 .bss.num_tables
                0x0000000020001b84        0x4 contiki-cc2538dk.a(nbr-table.o)
 .bss.packetbufptr
                0x0000000020001b88        0x4 contiki-cc2538dk.a(packetbuf.o)
 .bss.packetbuf_aligned
                0x0000000020001b8c       0xb0 contiki-cc2538dk.a(packetbuf.o)
 .bss.metadata_memb_memb_mem
                0x0000000020001c3c       0x30 contiki-cc2538dk.a(csma.o)
 .bss.neighbor_list_list
                0x0000000020001c6c        0x4 contiki-cc2538dk.a(csma.o)
 .bss.packet_memb_memb_mem
                0x0000000020001c70       0x30 contiki-cc2538dk.a(csma.o)
 .bss.neighbor_memb_memb_mem
                0x0000000020001ca0       0x70 contiki-cc2538dk.a(csma.o)
 .bss.cycle_start
                0x0000000020001d10        0x4 contiki-cc2538dk.a(contikimac.o)
 .bss.we_are_receiving_burst
                0x0000000020001d14        0x4 contiki-cc2538dk.a(contikimac.o)
 .bss.rt        0x0000000020001d18        0xc contiki-cc2538dk.a(contikimac.o)
 .bss.start.6920
                0x0000000020001d24        0x4 contiki-cc2538dk.a(contikimac.o)
 .bss.ct.6994   0x0000000020001d28       0x20 contiki-cc2538dk.a(contikimac.o)
 .bss.udp_conn  0x0000000020001d48        0x4 contiki-cc2538dk.a(er-coap.o)
 .bss.echo_reply_callback_list_list
                0x0000000020001d4c        0x4 contiki-cc2538dk.a(uip-icmp6.o)
 .bss.input_handler_list_list
                0x0000000020001d50        0x4 contiki-cc2538dk.a(uip-icmp6.o)
 .bss.prefix    0x0000000020001d54       0x10 borderest.co
 .bss.last_sender
                0x0000000020001d64       0x10 obj_cc2538dk/slip-bridge.o
 .bss.end       0x0000000020001d74        0x2 contiki-cc2538dk.a(slip.o)
 .bss.pkt_end   0x0000000020001d76        0x2 contiki-cc2538dk.a(slip.o)
 .bss.begin     0x0000000020001d78        0x2 contiki-cc2538dk.a(slip.o)
 .bss.loc_fipaddr
                0x0000000020001d7a       0x10 contiki-cc2538dk.a(uip-ds6.o)
 .bss.tmp16     0x0000000020001d8a        0x2 contiki-cc2538dk.a(uip6.o)
 .bss.lastport  0x0000000020001d8c        0x2 contiki-cc2538dk.a(uip6.o)
 .bss.reass_tag
                0x0000000020001d8e        0x2 contiki-cc2538dk.a(sicslowpan.o)
 .bss.sicslowpan_len
                0x0000000020001d90        0x2 contiki-cc2538dk.a(sicslowpan.o)
 .bss.my_tag    0x0000000020001d92        0x2 contiki-cc2538dk.a(sicslowpan.o)
 .bss.processed_ip_in_len
                0x0000000020001d94        0x2 contiki-cc2538dk.a(sicslowpan.o)
 .bss.next_dis  0x0000000020001d96        0x2 contiki-cc2538dk.a(rpl-timers.o)
 .bss.buframmem_memb_mem
                0x0000000020001d98      0x2c0 contiki-cc2538dk.a(queuebuf.o)
 .bss.buflen    0x0000000020002058        0x2 contiki-cc2538dk.a(packetbuf.o)
 .bss.bufptr    0x000000002000205a        0x2 contiki-cc2538dk.a(packetbuf.o)
 .bss.seqno.6179
                0x000000002000205c        0x2 contiki-cc2538dk.a(csma.o)
 .bss.pt        0x000000002000205e        0x2 contiki-cc2538dk.a(contikimac.o)
 .bss.current_mid
                0x0000000020002060        0x2 contiki-cc2538dk.a(er-coap.o)
 .bss.tmp_ipaddr
                0x0000000020002062       0x10 contiki-cc2538dk.a(uip-icmp6.o)
 .bss.prefix_set
                0x0000000020002072        0x1 borderest.co
 .bss.buf       0x0000000020002073      0x100 borderest.co
 .bss.led_status.5685
                0x0000000020002173        0x1 obj_cc2538dk/res-leds.o
 .bss.conns_memb_count
                0x0000000020002174        0x2 obj_cc2538dk/httpd-simple.o
 .bss.transactions_memb_memb_count
                0x0000000020002176        0x4 contiki-cc2538dk.a(er-coap-transac)
 .bss.observers_memb_memb_count
                0x000000002000217a        0x3 contiki-cc2538dk.a(er-coap-observe)
 .bss.leds      0x000000002000217d        0x1 contiki-cc2538dk.a(leds.o)
 .bss.num_sensors
                0x000000002000217e        0x1 contiki-cc2538dk.a(sensors.o)
 .bss.rf_flags  0x000000002000217f        0x1 contiki-cc2538dk.a(cc2538-rf.o)
 .bss.max_pm    0x0000000020002180        0x1 contiki-cc2538dk.a(lpm.o)
 .bss.debug_frame.5407
                0x0000000020002181        0x1 contiki-cc2538dk.a(dbg.o)
 .bss.rxbuf     0x0000000020002182       0x9c contiki-cc2538dk.a(slip.o)
 .bss.state     0x000000002000221e        0x1 contiki-cc2538dk.a(slip.o)
 .bss.initialized
                0x000000002000221f        0x1 contiki-cc2538dk.a(ctimer.o)
 .bss.fevent    0x0000000020002220        0x1 contiki-cc2538dk.a(process.o)
 .bss.nevents   0x0000000020002221        0x1 contiki-cc2538dk.a(process.o)
 .bss.poll_requested
                0x0000000020002222        0x1 contiki-cc2538dk.a(process.o)
 .bss.ev.5305   0x0000000020002223        0x1 contiki-cc2538dk.a(process.o)
 .bss.snum.5323
                0x0000000020002224        0x1 contiki-cc2538dk.a(process.o)
 .bss.lastevent
                0x0000000020002225        0x1 contiki-cc2538dk.a(process.o)
 .bss.rxbuf_data
                0x0000000020002226       0x80 contiki-cc2538dk.a(serial-line.o)
 .bss.overflow.4691
                0x00000000200022a6        0x1 contiki-cc2538dk.a(serial-line.o)
 .bss.buf.4697  0x00000000200022a7       0x80 contiki-cc2538dk.a(serial-line.o)
 .bss.defaultroutermemb_memb_count
                0x0000000020002327        0x2 contiki-cc2538dk.a(uip-ds6-route.o)
 .bss.neighborroutememb_memb_count
                0x0000000020002329       0x14 contiki-cc2538dk.a(uip-ds6-route.o)
 .bss.routememb_memb_count
                0x000000002000233d       0x14 contiki-cc2538dk.a(uip-ds6-route.o)
 .bss.uip_ext_len
                0x0000000020002351        0x1 contiki-cc2538dk.a(uip6.o)
                0x0000000020002351                uip_ext_len
 .bss.uip_ext_bitmap
                0x0000000020002352        0x1 contiki-cc2538dk.a(uip6.o)
                0x0000000020002352                uip_ext_bitmap
 .bss.iss       0x0000000020002353        0x4 contiki-cc2538dk.a(uip6.o)
 .bss.uip_ext_opt_offset
                0x0000000020002357        0x1 contiki-cc2538dk.a(uip6.o)
                0x0000000020002357                uip_ext_opt_offset
 .bss.c         0x0000000020002358        0x1 contiki-cc2538dk.a(uip6.o)
 .bss.opt       0x0000000020002359        0x1 contiki-cc2538dk.a(uip6.o)
 .bss.nd6_opt_offset
                0x000000002000235a        0x1 contiki-cc2538dk.a(uip-nd6.o)
 .bss.uncomp_hdr_len
                0x000000002000235b        0x1 contiki-cc2538dk.a(sicslowpan.o)
 .bss.addr_contexts
                0x000000002000235c        0xa contiki-cc2538dk.a(sicslowpan.o)
 .bss.packetbuf_hdr_len
                0x0000000020002366        0x1 contiki-cc2538dk.a(sicslowpan.o)
 .bss.i.7689    0x0000000020002367        0x1 contiki-cc2538dk.a(tcpip.o)
 .bss.i.7775    0x0000000020002368        0x1 contiki-cc2538dk.a(tcpip.o)
 .bss.i.7727    0x0000000020002369        0x1 contiki-cc2538dk.a(tcpip.o)
 .bss.i.7787    0x000000002000236a        0x1 contiki-cc2538dk.a(tcpip.o)
 .bss.dio_send_ok
                0x000000002000236b        0x1 contiki-cc2538dk.a(rpl-timers.o)
 .bss.mode      0x000000002000236c        0x1 contiki-cc2538dk.a(rpl.o)
 .bss.buframmem_memb_count
                0x000000002000236d        0x4 contiki-cc2538dk.a(queuebuf.o)
 .bss.bufmem_memb_count
                0x0000000020002371        0x4 contiki-cc2538dk.a(queuebuf.o)
 .bss.neighbor_addr_mem_memb_count
                0x0000000020002375       0x14 contiki-cc2538dk.a(nbr-table.o)
 .bss.locked_map
                0x0000000020002389       0x14 contiki-cc2538dk.a(nbr-table.o)
 .bss.used_map  0x000000002000239d       0x14 contiki-cc2538dk.a(nbr-table.o)
 .bss.hdrptr    0x00000000200023b1        0x1 contiki-cc2538dk.a(packetbuf.o)
 .bss.mac_dsn   0x00000000200023b2        0x1 contiki-cc2538dk.a(framer-802154.o)
 .bss.initialized
                0x00000000200023b3        0x1 contiki-cc2538dk.a(framer-802154.o)
 .bss.packet_memb_memb_count
                0x00000000200023b4        0x4 contiki-cc2538dk.a(csma.o)
 .bss.metadata_memb_memb_count
                0x00000000200023b8        0x4 contiki-cc2538dk.a(csma.o)
 .bss.neighbor_memb_memb_count
                0x00000000200023bc        0x2 contiki-cc2538dk.a(csma.o)
 .bss.initialized.6178
                0x00000000200023be        0x1 contiki-cc2538dk.a(csma.o)
 .bss.silence_periods.6921
                0x00000000200023bf        0x1 contiki-cc2538dk.a(contikimac.o)
 .bss.periods.6922
                0x00000000200023c0        0x1 contiki-cc2538dk.a(contikimac.o)
 .bss.radio_is_on
                0x00000000200023c1        0x1 contiki-cc2538dk.a(contikimac.o)
 .bss.we_are_sending
                0x00000000200023c2        0x1 contiki-cc2538dk.a(contikimac.o)
 .bss.contikimac_keep_radio_on
                0x00000000200023c3        0x1 contiki-cc2538dk.a(contikimac.o)
 .bss.count.6915
                0x00000000200023c4        0x1 contiki-cc2538dk.a(contikimac.o)
 .bss.contikimac_is_on
                0x00000000200023c5        0x1 contiki-cc2538dk.a(contikimac.o)
 .bss.packet_seen.6914
                0x00000000200023c6        0x1 contiki-cc2538dk.a(contikimac.o)
 .bss.erbium_status_code
                0x00000000200023c7        0x1 contiki-cc2538dk.a(er-coap.o)
                0x00000000200023c7                erbium_status_code
 .bss.received_seqnos
                0x00000000200023c8       0x90 contiki-cc2538dk.a(mac-sequence.o)
 *(SORT(COMMON))
 COMMON         0x0000000020002458      0x174 contiki-cc2538dk.a(uip-ds6.o)
                0x0000000020002458                uip_ds6_timer_ra
                0x0000000020002460                uip_ds6_if
                0x0000000020002558                uip_ds6_netif_addr_list_offset
                0x0000000020002559                uip_ds6_addr_size
                0x000000002000255c                uip_ds6_prefix_list
                0x00000000200025bc                uip_ds6_timer_periodic
 COMMON         0x00000000200025cc      0x3f0 contiki-cc2538dk.a(uip6.o)
                0x00000000200025cc                uip_len
                0x00000000200025d0                uip_sappdata
                0x00000000200025d4                uip_acc32
                0x00000000200025d8                uip_lladdr
                0x00000000200025e0                uip_aligned_buf
                0x000000002000266c                uip_flags
                0x0000000020002670                uip_next_hdr
                0x0000000020002674                uip_udp_conn
                0x0000000020002678                uip_appdata
                0x000000002000267c                uip_conn
                0x0000000020002680                uip_conns
                0x0000000020002860                uip_icmp6_conns
                0x0000000020002868                uip_listenports
                0x0000000020002878                uip_slen
                0x000000002000287c                uip_udp_conns
 COMMON         0x00000000200029bc      0x128 contiki-cc2538dk.a(rpl-dag.o)
                0x00000000200029bc                default_instance
                0x00000000200029c0                instance_table
 COMMON         0x0000000020002ae4       0x2e contiki-cc2538dk.a(packetbuf.o)
                0x0000000020002ae4                packetbuf_addrs
                0x0000000020002af4                packetbuf_attrs
 COMMON         0x0000000020002b12        0x1 contiki-cc2538dk.a(sensors.o)
                0x0000000020002b12                sensors_event
 COMMON         0x0000000020002b13        0x9 contiki-cc2538dk.a(smartrf-sensors)
                0x0000000020002b13                sensors_flags
 COMMON         0x0000000020002b1c        0x1 contiki-cc2538dk.a(slip.o)
                0x0000000020002b1c                slip_active
 COMMON         0x0000000020002b1d        0x1 contiki-cc2538dk.a(serial-line.o)
                0x0000000020002b1d                serial_line_event_message
 COMMON         0x0000000020002b1e        0x8 contiki-cc2538dk.a(sicslowpan.o)
                0x0000000020002b1e                frag_sender
 COMMON         0x0000000020002b26        0x2 contiki-cc2538dk.a(tcpip.o)
                0x0000000020002b26                tcpip_event
                0x0000000020002b27                tcpip_icmp6_event
 COMMON         0x0000000020002b28        0x8 contiki-cc2538dk.a(linkaddr.o)
                0x0000000020002b28                linkaddr_node_addr
                0x0000000020002b30                _ebss = .

.stack          0x0000000020002b30      0x800
 *(SORT(.stack))
 .stack         0x0000000020002b30      0x800 obj_cc2538dk/startup-gcc.o

.flashcca       0x000000000027ffd4       0x2c
 *(SORT(.flashcca))
 .flashcca      0x000000000027ffd4       0x2c obj_cc2538dk/startup-gcc.o
                0x000000000027ffd4                __cca
OUTPUT(borderest.elf elf32-littlearm)

.rel.dyn        0x0000000000280000        0x0
 .rel.iplt      0x0000000000280000        0x0 obj_cc2538dk/startup-gcc.o

.comment        0x0000000000000000       0x3f
 .comment       0x0000000000000000       0x20 obj_cc2538dk/startup-gcc.o
                                         0x21 (size before relaxing)
 .comment       0x0000000000000020       0x21 borderest.co
 .comment       0x0000000000000020       0x21 obj_cc2538dk/slip-bridge.o
 .comment       0x0000000000000020       0x21 obj_cc2538dk/res-leds.o
 .comment       0x0000000000000020       0x21 obj_cc2538dk/res-toggle.o
 .comment       0x0000000000000020       0x21 obj_cc2538dk/res-hello.o
 .comment       0x0000000000000020       0x21 obj_cc2538dk/httpd-simple.o
 .comment       0x0000000000000020       0x21 contiki-cc2538dk.a(er-coap-engine.)
 .comment       0x0000000000000020       0x21 contiki-cc2538dk.a(er-coap-transac)
 .comment       0x0000000000000020       0x21 contiki-cc2538dk.a(er-coap-observe)
 .comment       0x0000000000000020       0x21 contiki-cc2538dk.a(er-coap-res-wel)
 .comment       0x0000000000000020       0x21 contiki-cc2538dk.a(rest-engine.o)
 .comment       0x0000000000000020       0x21 contiki-cc2538dk.a(leds.o)
 .comment       0x0000000000000020       0x21 contiki-cc2538dk.a(leds-arch.o)
 .comment       0x0000000000000020       0x21 contiki-cc2538dk.a(contiki-main.o)
 .comment       0x0000000000000020       0x21 contiki-cc2538dk.a(sensors.o)
 .comment       0x0000000000000020       0x21 contiki-cc2538dk.a(smartrf-sensors)
 .comment       0x0000000000000020       0x21 contiki-cc2538dk.a(button-sensor.o)
 .comment       0x0000000000000020       0x21 contiki-cc2538dk.a(als-sensor.o)
 .comment       0x0000000000000020       0x21 contiki-cc2538dk.a(clock.o)
 .comment       0x0000000000000020       0x21 contiki-cc2538dk.a(rtimer-arch.o)
 .comment       0x0000000000000020       0x21 contiki-cc2538dk.a(uart.o)
 .comment       0x0000000000000020       0x21 contiki-cc2538dk.a(watchdog.o)
 .comment       0x0000000000000020       0x21 contiki-cc2538dk.a(nvic.o)
 .comment       0x0000000000000020       0x21 contiki-cc2538dk.a(cpu.o)
 .comment       0x0000000000000020       0x21 contiki-cc2538dk.a(sys-ctrl.o)
 .comment       0x0000000000000020       0x21 contiki-cc2538dk.a(gpio.o)
 .comment       0x0000000000000020       0x21 contiki-cc2538dk.a(ioc.o)
 .comment       0x0000000000000020       0x21 contiki-cc2538dk.a(adc.o)
 .comment       0x0000000000000020       0x21 contiki-cc2538dk.a(crypto.o)
 .comment       0x0000000000000020       0x21 contiki-cc2538dk.a(cc2538-rf.o)
 .comment       0x0000000000000020       0x21 contiki-cc2538dk.a(udma.o)
 .comment       0x0000000000000020       0x21 contiki-cc2538dk.a(lpm.o)
 .comment       0x0000000000000020       0x21 contiki-cc2538dk.a(dbg.o)
 .comment       0x0000000000000020       0x21 contiki-cc2538dk.a(ieee-addr.o)
 .comment       0x0000000000000020       0x21 contiki-cc2538dk.a(slip-arch.o)
 .comment       0x0000000000000020       0x21 contiki-cc2538dk.a(slip.o)
 .comment       0x0000000000000020       0x21 contiki-cc2538dk.a(cc2538-temp-sen)
 .comment       0x0000000000000020       0x21 contiki-cc2538dk.a(vdd3-sensor.o)
 .comment       0x0000000000000020       0x21 contiki-cc2538dk.a(dbg-printf.o)
 .comment       0x0000000000000020       0x21 contiki-cc2538dk.a(dbg-snprintf.o)
 .comment       0x0000000000000020       0x21 contiki-cc2538dk.a(strformat.o)
 .comment       0x0000000000000020       0x21 contiki-cc2538dk.a(autostart.o)
 .comment       0x0000000000000020       0x21 contiki-cc2538dk.a(energest.o)
 .comment       0x0000000000000020       0x21 contiki-cc2538dk.a(etimer.o)
 .comment       0x0000000000000020       0x21 contiki-cc2538dk.a(ctimer.o)
 .comment       0x0000000000000020       0x21 contiki-cc2538dk.a(process.o)
 .comment       0x0000000000000020       0x21 contiki-cc2538dk.a(rtimer.o)
 .comment       0x0000000000000020       0x21 contiki-cc2538dk.a(timer.o)
 .comment       0x0000000000000020       0x21 contiki-cc2538dk.a(serial-line.o)
 .comment       0x0000000000000020       0x21 contiki-cc2538dk.a(list.o)
 .comment       0x0000000000000020       0x21 contiki-cc2538dk.a(memb.o)
 .comment       0x0000000000000020       0x21 contiki-cc2538dk.a(random.o)
 .comment       0x0000000000000020       0x21 contiki-cc2538dk.a(ringbuf.o)
 .comment       0x0000000000000020       0x21 contiki-cc2538dk.a(uip-ds6.o)
 .comment       0x0000000000000020       0x21 contiki-cc2538dk.a(uip-ds6-route.o)
 .comment       0x0000000000000020       0x21 contiki-cc2538dk.a(uip6.o)
 .comment       0x0000000000000020       0x21 contiki-cc2538dk.a(uip-ds6-nbr.o)
 .comment       0x0000000000000020       0x21 contiki-cc2538dk.a(uip-nd6.o)
 .comment       0x0000000000000020       0x21 contiki-cc2538dk.a(sicslowpan.o)
 .comment       0x0000000000000020       0x21 contiki-cc2538dk.a(uip-debug.o)
 .comment       0x0000000000000020       0x21 contiki-cc2538dk.a(psock.o)
 .comment       0x0000000000000020       0x21 contiki-cc2538dk.a(tcpip.o)
 .comment       0x0000000000000020       0x21 contiki-cc2538dk.a(rpl-dag.o)
 .comment       0x0000000000000020       0x21 contiki-cc2538dk.a(rpl-timers.o)
 .comment       0x0000000000000020       0x21 contiki-cc2538dk.a(rpl-ext-header.)
 .comment       0x0000000000000020       0x21 contiki-cc2538dk.a(rpl.o)
 .comment       0x0000000000000020       0x21 contiki-cc2538dk.a(rpl-mrhof.o)
 .comment       0x0000000000000020       0x21 contiki-cc2538dk.a(queuebuf.o)
 .comment       0x0000000000000020       0x21 contiki-cc2538dk.a(nbr-table.o)
 .comment       0x0000000000000020       0x21 contiki-cc2538dk.a(packetbuf.o)
 .comment       0x0000000000000020       0x21 contiki-cc2538dk.a(netstack.o)
 .comment       0x0000000000000020       0x21 contiki-cc2538dk.a(linkaddr.o)
 .comment       0x0000000000000020       0x21 contiki-cc2538dk.a(framer-802154.o)
 .comment       0x0000000000000020       0x21 contiki-cc2538dk.a(csma.o)
 .comment       0x0000000000000020       0x21 contiki-cc2538dk.a(frame802154.o)
 .comment       0x0000000000000020       0x21 contiki-cc2538dk.a(mac.o)
 .comment       0x0000000000000020       0x21 contiki-cc2538dk.a(framer.o)
 .comment       0x0000000000000020       0x21 contiki-cc2538dk.a(contikimac.o)
 .comment       0x0000000000000020       0x21 contiki-cc2538dk.a(nullsec.o)
 .comment       0x0000000000000020       0x21 contiki-cc2538dk.a(er-coap.o)
 .comment       0x0000000000000020       0x21 contiki-cc2538dk.a(stimer.o)
 .comment       0x0000000000000020       0x21 contiki-cc2538dk.a(uip-icmp6.o)
 .comment       0x0000000000000020       0x21 contiki-cc2538dk.a(uip-udp-packet.)
 .comment       0x0000000000000020       0x21 contiki-cc2538dk.a(rpl-icmp6.o)
 .comment       0x0000000000000020       0x21 contiki-cc2538dk.a(mac-sequence.o)
 .comment       0x0000000000000020       0x21 /usr/lib/gcc/arm-none-eabi/4.8/armv7-m/libgcc.a(bpabi.o)
 .comment       0x0000000000000020       0x21 /usr/lib/gcc/arm-none-eabi/4.8/armv7-m/libgcc.a(_divdi3.o)
 .comment       0x0000000000000020       0x21 /usr/lib/gcc/arm-none-eabi/4.8/armv7-m/libgcc.a(_udivdi3.o)
 .comment       0x0000000000000020       0x1f /usr/lib/gcc/arm-none-eabi/4.8/../../../arm-none-eabi/lib/armv7-m/libc.a(lib_a-atoi.o)
                                         0x20 (size before relaxing)
 .comment       0x000000000000003f       0x20 /usr/lib/gcc/arm-none-eabi/4.8/../../../arm-none-eabi/lib/armv7-m/libc.a(lib_a-memchr-stub.o)
 .comment       0x000000000000003f       0x20 /usr/lib/gcc/arm-none-eabi/4.8/../../../arm-none-eabi/lib/armv7-m/libc.a(lib_a-memcmp.o)
 .comment       0x000000000000003f       0x20 /usr/lib/gcc/arm-none-eabi/4.8/../../../arm-none-eabi/lib/armv7-m/libc.a(lib_a-memmove.o)
 .comment       0x000000000000003f       0x20 /usr/lib/gcc/arm-none-eabi/4.8/../../../arm-none-eabi/lib/armv7-m/libc.a(lib_a-memset.o)
 .comment       0x000000000000003f       0x20 /usr/lib/gcc/arm-none-eabi/4.8/../../../arm-none-eabi/lib/armv7-m/libc.a(lib_a-strchr.o)
 .comment       0x000000000000003f       0x20 /usr/lib/gcc/arm-none-eabi/4.8/../../../arm-none-eabi/lib/armv7-m/libc.a(lib_a-strcpy.o)
 .comment       0x000000000000003f       0x20 /usr/lib/gcc/arm-none-eabi/4.8/../../../arm-none-eabi/lib/armv7-m/libc.a(lib_a-strlen.o)
 .comment       0x000000000000003f       0x20 /usr/lib/gcc/arm-none-eabi/4.8/../../../arm-none-eabi/lib/armv7-m/libc.a(lib_a-strncmp.o)
 .comment       0x000000000000003f       0x20 /usr/lib/gcc/arm-none-eabi/4.8/../../../arm-none-eabi/lib/armv7-m/libc.a(lib_a-strncpy.o)
 .comment       0x000000000000003f       0x20 /usr/lib/gcc/arm-none-eabi/4.8/../../../arm-none-eabi/lib/armv7-m/libc.a(lib_a-strtol.o)
 .comment       0x000000000000003f       0x20 /usr/lib/gcc/arm-none-eabi/4.8/../../../arm-none-eabi/lib/armv7-m/libc.a(lib_a-ctype_.o)
 .comment       0x000000000000003f       0x20 /usr/lib/gcc/arm-none-eabi/4.8/../../../arm-none-eabi/lib/armv7-m/libc.a(lib_a-impure.o)

.ARM.attributes
                0x0000000000000000       0x31
 .ARM.attributes
                0x0000000000000000       0x33 obj_cc2538dk/startup-gcc.o
 .ARM.attributes
                0x0000000000000033       0x33 borderest.co
 .ARM.attributes
                0x0000000000000066       0x33 obj_cc2538dk/slip-bridge.o
 .ARM.attributes
                0x0000000000000099       0x33 obj_cc2538dk/res-leds.o
 .ARM.attributes
                0x00000000000000cc       0x33 obj_cc2538dk/res-toggle.o
 .ARM.attributes
                0x00000000000000ff       0x33 obj_cc2538dk/res-hello.o
 .ARM.attributes
                0x0000000000000132       0x33 obj_cc2538dk/httpd-simple.o
 .ARM.attributes
                0x0000000000000165       0x33 contiki-cc2538dk.a(er-coap-engine.)
 .ARM.attributes
                0x0000000000000198       0x33 contiki-cc2538dk.a(er-coap-transac)
 .ARM.attributes
                0x00000000000001cb       0x33 contiki-cc2538dk.a(er-coap-observe)
 .ARM.attributes
                0x00000000000001fe       0x33 contiki-cc2538dk.a(er-coap-res-wel)
 .ARM.attributes
                0x0000000000000231       0x33 contiki-cc2538dk.a(rest-engine.o)
 .ARM.attributes
                0x0000000000000264       0x33 contiki-cc2538dk.a(leds.o)
 .ARM.attributes
                0x0000000000000297       0x33 contiki-cc2538dk.a(leds-arch.o)
 .ARM.attributes
                0x00000000000002ca       0x33 contiki-cc2538dk.a(contiki-main.o)
 .ARM.attributes
                0x00000000000002fd       0x33 contiki-cc2538dk.a(sensors.o)
 .ARM.attributes
                0x0000000000000330       0x33 contiki-cc2538dk.a(smartrf-sensors)
 .ARM.attributes
                0x0000000000000363       0x33 contiki-cc2538dk.a(button-sensor.o)
 .ARM.attributes
                0x0000000000000396       0x33 contiki-cc2538dk.a(als-sensor.o)
 .ARM.attributes
                0x00000000000003c9       0x33 contiki-cc2538dk.a(clock.o)
 .ARM.attributes
                0x00000000000003fc       0x33 contiki-cc2538dk.a(rtimer-arch.o)
 .ARM.attributes
                0x000000000000042f       0x33 contiki-cc2538dk.a(uart.o)
 .ARM.attributes
                0x0000000000000462       0x33 contiki-cc2538dk.a(watchdog.o)
 .ARM.attributes
                0x0000000000000495       0x33 contiki-cc2538dk.a(nvic.o)
 .ARM.attributes
                0x00000000000004c8       0x33 contiki-cc2538dk.a(cpu.o)
 .ARM.attributes
                0x00000000000004fb       0x33 contiki-cc2538dk.a(sys-ctrl.o)
 .ARM.attributes
                0x000000000000052e       0x33 contiki-cc2538dk.a(gpio.o)
 .ARM.attributes
                0x0000000000000561       0x33 contiki-cc2538dk.a(ioc.o)
 .ARM.attributes
                0x0000000000000594       0x33 contiki-cc2538dk.a(adc.o)
 .ARM.attributes
                0x00000000000005c7       0x33 contiki-cc2538dk.a(crypto.o)
 .ARM.attributes
                0x00000000000005fa       0x33 contiki-cc2538dk.a(cc2538-rf.o)
 .ARM.attributes
                0x000000000000062d       0x33 contiki-cc2538dk.a(udma.o)
 .ARM.attributes
                0x0000000000000660       0x33 contiki-cc2538dk.a(lpm.o)
 .ARM.attributes
                0x0000000000000693       0x33 contiki-cc2538dk.a(dbg.o)
 .ARM.attributes
                0x00000000000006c6       0x33 contiki-cc2538dk.a(ieee-addr.o)
 .ARM.attributes
                0x00000000000006f9       0x33 contiki-cc2538dk.a(slip-arch.o)
 .ARM.attributes
                0x000000000000072c       0x33 contiki-cc2538dk.a(slip.o)
 .ARM.attributes
                0x000000000000075f       0x33 contiki-cc2538dk.a(cc2538-temp-sen)
 .ARM.attributes
                0x0000000000000792       0x33 contiki-cc2538dk.a(vdd3-sensor.o)
 .ARM.attributes
                0x00000000000007c5       0x33 contiki-cc2538dk.a(dbg-printf.o)
 .ARM.attributes
                0x00000000000007f8       0x33 contiki-cc2538dk.a(dbg-snprintf.o)
 .ARM.attributes
                0x000000000000082b       0x33 contiki-cc2538dk.a(strformat.o)
 .ARM.attributes
                0x000000000000085e       0x33 contiki-cc2538dk.a(autostart.o)
 .ARM.attributes
                0x0000000000000891       0x33 contiki-cc2538dk.a(energest.o)
 .ARM.attributes
                0x00000000000008c4       0x33 contiki-cc2538dk.a(etimer.o)
 .ARM.attributes
                0x00000000000008f7       0x33 contiki-cc2538dk.a(ctimer.o)
 .ARM.attributes
                0x000000000000092a       0x33 contiki-cc2538dk.a(process.o)
 .ARM.attributes
                0x000000000000095d       0x33 contiki-cc2538dk.a(rtimer.o)
 .ARM.attributes
                0x0000000000000990       0x33 contiki-cc2538dk.a(timer.o)
 .ARM.attributes
                0x00000000000009c3       0x33 contiki-cc2538dk.a(serial-line.o)
 .ARM.attributes
                0x00000000000009f6       0x33 contiki-cc2538dk.a(list.o)
 .ARM.attributes
                0x0000000000000a29       0x33 contiki-cc2538dk.a(memb.o)
 .ARM.attributes
                0x0000000000000a5c       0x33 contiki-cc2538dk.a(random.o)
 .ARM.attributes
                0x0000000000000a8f       0x33 contiki-cc2538dk.a(ringbuf.o)
 .ARM.attributes
                0x0000000000000ac2       0x33 contiki-cc2538dk.a(uip-ds6.o)
 .ARM.attributes
                0x0000000000000af5       0x33 contiki-cc2538dk.a(uip-ds6-route.o)
 .ARM.attributes
                0x0000000000000b28       0x33 contiki-cc2538dk.a(uip6.o)
 .ARM.attributes
                0x0000000000000b5b       0x33 contiki-cc2538dk.a(uip-ds6-nbr.o)
 .ARM.attributes
                0x0000000000000b8e       0x33 contiki-cc2538dk.a(uip-nd6.o)
 .ARM.attributes
                0x0000000000000bc1       0x33 contiki-cc2538dk.a(sicslowpan.o)
 .ARM.attributes
                0x0000000000000bf4       0x33 contiki-cc2538dk.a(uip-debug.o)
 .ARM.attributes
                0x0000000000000c27       0x33 contiki-cc2538dk.a(psock.o)
 .ARM.attributes
                0x0000000000000c5a       0x33 contiki-cc2538dk.a(tcpip.o)
 .ARM.attributes
                0x0000000000000c8d       0x33 contiki-cc2538dk.a(rpl-dag.o)
 .ARM.attributes
                0x0000000000000cc0       0x33 contiki-cc2538dk.a(rpl-timers.o)
 .ARM.attributes
                0x0000000000000cf3       0x33 contiki-cc2538dk.a(rpl-ext-header.)
 .ARM.attributes
                0x0000000000000d26       0x33 contiki-cc2538dk.a(rpl.o)
 .ARM.attributes
                0x0000000000000d59       0x33 contiki-cc2538dk.a(rpl-mrhof.o)
 .ARM.attributes
                0x0000000000000d8c       0x33 contiki-cc2538dk.a(queuebuf.o)
 .ARM.attributes
                0x0000000000000dbf       0x33 contiki-cc2538dk.a(nbr-table.o)
 .ARM.attributes
                0x0000000000000df2       0x33 contiki-cc2538dk.a(packetbuf.o)
 .ARM.attributes
                0x0000000000000e25       0x33 contiki-cc2538dk.a(netstack.o)
 .ARM.attributes
                0x0000000000000e58       0x33 contiki-cc2538dk.a(linkaddr.o)
 .ARM.attributes
                0x0000000000000e8b       0x33 contiki-cc2538dk.a(framer-802154.o)
 .ARM.attributes
                0x0000000000000ebe       0x33 contiki-cc2538dk.a(csma.o)
 .ARM.attributes
                0x0000000000000ef1       0x33 contiki-cc2538dk.a(frame802154.o)
 .ARM.attributes
                0x0000000000000f24       0x33 contiki-cc2538dk.a(mac.o)
 .ARM.attributes
                0x0000000000000f57       0x33 contiki-cc2538dk.a(framer.o)
 .ARM.attributes
                0x0000000000000f8a       0x33 contiki-cc2538dk.a(contikimac.o)
 .ARM.attributes
                0x0000000000000fbd       0x33 contiki-cc2538dk.a(nullsec.o)
 .ARM.attributes
                0x0000000000000ff0       0x33 contiki-cc2538dk.a(er-coap.o)
 .ARM.attributes
                0x0000000000001023       0x33 contiki-cc2538dk.a(stimer.o)
 .ARM.attributes
                0x0000000000001056       0x33 contiki-cc2538dk.a(uip-icmp6.o)
 .ARM.attributes
                0x0000000000001089       0x33 contiki-cc2538dk.a(uip-udp-packet.)
 .ARM.attributes
                0x00000000000010bc       0x33 contiki-cc2538dk.a(rpl-icmp6.o)
 .ARM.attributes
                0x00000000000010ef       0x33 contiki-cc2538dk.a(mac-sequence.o)
 .ARM.attributes
                0x0000000000001122       0x1d /usr/lib/gcc/arm-none-eabi/4.8/armv7-m/libgcc.a(_aeabi_uldivmod.o)
 .ARM.attributes
                0x000000000000113f       0x2d /usr/lib/gcc/arm-none-eabi/4.8/armv7-m/libgcc.a(bpabi.o)
 .ARM.attributes
                0x000000000000116c       0x1d /usr/lib/gcc/arm-none-eabi/4.8/armv7-m/libgcc.a(_dvmd_tls.o)
 .ARM.attributes
                0x0000000000001189       0x2d /usr/lib/gcc/arm-none-eabi/4.8/armv7-m/libgcc.a(_divdi3.o)
 .ARM.attributes
                0x00000000000011b6       0x2d /usr/lib/gcc/arm-none-eabi/4.8/armv7-m/libgcc.a(_udivdi3.o)
 .ARM.attributes
                0x00000000000011e3       0x2d /usr/lib/gcc/arm-none-eabi/4.8/../../../arm-none-eabi/lib/armv7-m/libc.a(lib_a-atoi.o)
 .ARM.attributes
                0x0000000000001210       0x2d /usr/lib/gcc/arm-none-eabi/4.8/../../../arm-none-eabi/lib/armv7-m/libc.a(lib_a-memchr-stub.o)
 .ARM.attributes
                0x000000000000123d       0x2d /usr/lib/gcc/arm-none-eabi/4.8/../../../arm-none-eabi/lib/armv7-m/libc.a(lib_a-memcmp.o)
 .ARM.attributes
                0x000000000000126a       0x1b /usr/lib/gcc/arm-none-eabi/4.8/../../../arm-none-eabi/lib/armv7-m/libc.a(lib_a-memcpy.o)
 .ARM.attributes
                0x0000000000001285       0x2d /usr/lib/gcc/arm-none-eabi/4.8/../../../arm-none-eabi/lib/armv7-m/libc.a(lib_a-memmove.o)
 .ARM.attributes
                0x00000000000012b2       0x2d /usr/lib/gcc/arm-none-eabi/4.8/../../../arm-none-eabi/lib/armv7-m/libc.a(lib_a-memset.o)
 .ARM.attributes
                0x00000000000012df       0x2d /usr/lib/gcc/arm-none-eabi/4.8/../../../arm-none-eabi/lib/armv7-m/libc.a(lib_a-strchr.o)
 .ARM.attributes
                0x000000000000130c       0x2d /usr/lib/gcc/arm-none-eabi/4.8/../../../arm-none-eabi/lib/armv7-m/libc.a(lib_a-strcpy.o)
 .ARM.attributes
                0x0000000000001339       0x2d /usr/lib/gcc/arm-none-eabi/4.8/../../../arm-none-eabi/lib/armv7-m/libc.a(lib_a-strlen.o)
 .ARM.attributes
                0x0000000000001366       0x2d /usr/lib/gcc/arm-none-eabi/4.8/../../../arm-none-eabi/lib/armv7-m/libc.a(lib_a-strncmp.o)
 .ARM.attributes
                0x0000000000001393       0x2d /usr/lib/gcc/arm-none-eabi/4.8/../../../arm-none-eabi/lib/armv7-m/libc.a(lib_a-strncpy.o)
 .ARM.attributes
                0x00000000000013c0       0x2d /usr/lib/gcc/arm-none-eabi/4.8/../../../arm-none-eabi/lib/armv7-m/libc.a(lib_a-strtol.o)
 .ARM.attributes
                0x00000000000013ed       0x2d /usr/lib/gcc/arm-none-eabi/4.8/../../../arm-none-eabi/lib/armv7-m/libc.a(lib_a-ctype_.o)
 .ARM.attributes
                0x000000000000141a       0x2d /usr/lib/gcc/arm-none-eabi/4.8/../../../arm-none-eabi/lib/armv7-m/libc.a(lib_a-impure.o)

.debug_line     0x0000000000000000     0x11a9
 .debug_line    0x0000000000000000       0x68 /usr/lib/gcc/arm-none-eabi/4.8/armv7-m/libgcc.a(_aeabi_uldivmod.o)
 .debug_line    0x0000000000000068       0x68 /usr/lib/gcc/arm-none-eabi/4.8/armv7-m/libgcc.a(bpabi.o)
 .debug_line    0x00000000000000d0       0x64 /usr/lib/gcc/arm-none-eabi/4.8/armv7-m/libgcc.a(_dvmd_tls.o)
 .debug_line    0x0000000000000134       0xeb /usr/lib/gcc/arm-none-eabi/4.8/armv7-m/libgcc.a(_divdi3.o)
 .debug_line    0x000000000000021f       0xf5 /usr/lib/gcc/arm-none-eabi/4.8/armv7-m/libgcc.a(_udivdi3.o)
 .debug_line    0x0000000000000314      0x158 /usr/lib/gcc/arm-none-eabi/4.8/../../../arm-none-eabi/lib/armv7-m/libc.a(lib_a-atoi.o)
 .debug_line    0x000000000000046c      0x127 /usr/lib/gcc/arm-none-eabi/4.8/../../../arm-none-eabi/lib/armv7-m/libc.a(lib_a-memchr-stub.o)
 .debug_line    0x0000000000000593      0x108 /usr/lib/gcc/arm-none-eabi/4.8/../../../arm-none-eabi/lib/armv7-m/libc.a(lib_a-memcmp.o)
 .debug_line    0x000000000000069b       0xbb /usr/lib/gcc/arm-none-eabi/4.8/../../../arm-none-eabi/lib/armv7-m/libc.a(lib_a-memcpy.o)
 .debug_line    0x0000000000000756      0x126 /usr/lib/gcc/arm-none-eabi/4.8/../../../arm-none-eabi/lib/armv7-m/libc.a(lib_a-memmove.o)
 .debug_line    0x000000000000087c      0x11a /usr/lib/gcc/arm-none-eabi/4.8/../../../arm-none-eabi/lib/armv7-m/libc.a(lib_a-memset.o)
 .debug_line    0x0000000000000996      0x101 /usr/lib/gcc/arm-none-eabi/4.8/../../../arm-none-eabi/lib/armv7-m/libc.a(lib_a-strchr.o)
 .debug_line    0x0000000000000a97       0xb5 /usr/lib/gcc/arm-none-eabi/4.8/../../../arm-none-eabi/lib/armv7-m/libc.a(lib_a-strcpy.o)
 .debug_line    0x0000000000000b4c       0xe9 /usr/lib/gcc/arm-none-eabi/4.8/../../../arm-none-eabi/lib/armv7-m/libc.a(lib_a-strlen.o)
 .debug_line    0x0000000000000c35      0x144 /usr/lib/gcc/arm-none-eabi/4.8/../../../arm-none-eabi/lib/armv7-m/libc.a(lib_a-strncmp.o)
 .debug_line    0x0000000000000d79      0x113 /usr/lib/gcc/arm-none-eabi/4.8/../../../arm-none-eabi/lib/armv7-m/libc.a(lib_a-strncpy.o)
 .debug_line    0x0000000000000e8c      0x1ca /usr/lib/gcc/arm-none-eabi/4.8/../../../arm-none-eabi/lib/armv7-m/libc.a(lib_a-strtol.o)
 .debug_line    0x0000000000001056       0x6b /usr/lib/gcc/arm-none-eabi/4.8/../../../arm-none-eabi/lib/armv7-m/libc.a(lib_a-ctype_.o)
 .debug_line    0x00000000000010c1       0xe8 /usr/lib/gcc/arm-none-eabi/4.8/../../../arm-none-eabi/lib/armv7-m/libc.a(lib_a-impure.o)

.debug_info     0x0000000000000000     0x33a6
 .debug_info    0x0000000000000000       0x9f /usr/lib/gcc/arm-none-eabi/4.8/armv7-m/libgcc.a(_aeabi_uldivmod.o)
 .debug_info    0x000000000000009f      0x164 /usr/lib/gcc/arm-none-eabi/4.8/armv7-m/libgcc.a(bpabi.o)
 .debug_info    0x0000000000000203       0xa3 /usr/lib/gcc/arm-none-eabi/4.8/armv7-m/libgcc.a(_dvmd_tls.o)
 .debug_info    0x00000000000002a6      0x5ac /usr/lib/gcc/arm-none-eabi/4.8/armv7-m/libgcc.a(_divdi3.o)
 .debug_info    0x0000000000000852      0x577 /usr/lib/gcc/arm-none-eabi/4.8/armv7-m/libgcc.a(_udivdi3.o)
 .debug_info    0x0000000000000dc9      0x941 /usr/lib/gcc/arm-none-eabi/4.8/../../../arm-none-eabi/lib/armv7-m/libc.a(lib_a-atoi.o)
 .debug_info    0x000000000000170a      0x129 /usr/lib/gcc/arm-none-eabi/4.8/../../../arm-none-eabi/lib/armv7-m/libc.a(lib_a-memchr-stub.o)
 .debug_info    0x0000000000001833      0x113 /usr/lib/gcc/arm-none-eabi/4.8/../../../arm-none-eabi/lib/armv7-m/libc.a(lib_a-memcmp.o)
 .debug_info    0x0000000000001946       0xc9 /usr/lib/gcc/arm-none-eabi/4.8/../../../arm-none-eabi/lib/armv7-m/libc.a(lib_a-memcpy.o)
 .debug_info    0x0000000000001a0f      0x131 /usr/lib/gcc/arm-none-eabi/4.8/../../../arm-none-eabi/lib/armv7-m/libc.a(lib_a-memmove.o)
 .debug_info    0x0000000000001b40      0x117 /usr/lib/gcc/arm-none-eabi/4.8/../../../arm-none-eabi/lib/armv7-m/libc.a(lib_a-memset.o)
 .debug_info    0x0000000000001c57      0x116 /usr/lib/gcc/arm-none-eabi/4.8/../../../arm-none-eabi/lib/armv7-m/libc.a(lib_a-strchr.o)
 .debug_info    0x0000000000001d6d       0xbd /usr/lib/gcc/arm-none-eabi/4.8/../../../arm-none-eabi/lib/armv7-m/libc.a(lib_a-strcpy.o)
 .debug_info    0x0000000000001e2a       0xb5 /usr/lib/gcc/arm-none-eabi/4.8/../../../arm-none-eabi/lib/armv7-m/libc.a(lib_a-strlen.o)
 .debug_info    0x0000000000001edf       0xf5 /usr/lib/gcc/arm-none-eabi/4.8/../../../arm-none-eabi/lib/armv7-m/libc.a(lib_a-strncmp.o)
 .debug_info    0x0000000000001fd4      0x128 /usr/lib/gcc/arm-none-eabi/4.8/../../../arm-none-eabi/lib/armv7-m/libc.a(lib_a-strncpy.o)
 .debug_info    0x00000000000020fc      0x9a7 /usr/lib/gcc/arm-none-eabi/4.8/../../../arm-none-eabi/lib/armv7-m/libc.a(lib_a-strtol.o)
 .debug_info    0x0000000000002aa3       0x6f /usr/lib/gcc/arm-none-eabi/4.8/../../../arm-none-eabi/lib/armv7-m/libc.a(lib_a-ctype_.o)
 .debug_info    0x0000000000002b12      0x894 /usr/lib/gcc/arm-none-eabi/4.8/../../../arm-none-eabi/lib/armv7-m/libc.a(lib_a-impure.o)

.debug_abbrev   0x0000000000000000      0xe4f
 .debug_abbrev  0x0000000000000000       0x14 /usr/lib/gcc/arm-none-eabi/4.8/armv7-m/libgcc.a(_aeabi_uldivmod.o)
 .debug_abbrev  0x0000000000000014       0xb7 /usr/lib/gcc/arm-none-eabi/4.8/armv7-m/libgcc.a(bpabi.o)
 .debug_abbrev  0x00000000000000cb       0x14 /usr/lib/gcc/arm-none-eabi/4.8/armv7-m/libgcc.a(_dvmd_tls.o)
 .debug_abbrev  0x00000000000000df      0x15a /usr/lib/gcc/arm-none-eabi/4.8/armv7-m/libgcc.a(_divdi3.o)
 .debug_abbrev  0x0000000000000239      0x154 /usr/lib/gcc/arm-none-eabi/4.8/armv7-m/libgcc.a(_udivdi3.o)
 .debug_abbrev  0x000000000000038d      0x1d1 /usr/lib/gcc/arm-none-eabi/4.8/../../../arm-none-eabi/lib/armv7-m/libc.a(lib_a-atoi.o)
 .debug_abbrev  0x000000000000055e       0xba /usr/lib/gcc/arm-none-eabi/4.8/../../../arm-none-eabi/lib/armv7-m/libc.a(lib_a-memchr-stub.o)
 .debug_abbrev  0x0000000000000618       0x7f /usr/lib/gcc/arm-none-eabi/4.8/../../../arm-none-eabi/lib/armv7-m/libc.a(lib_a-memcmp.o)
 .debug_abbrev  0x0000000000000697       0x14 /usr/lib/gcc/arm-none-eabi/4.8/../../../arm-none-eabi/lib/armv7-m/libc.a(lib_a-memcpy.o)
 .debug_abbrev  0x00000000000006ab       0xab /usr/lib/gcc/arm-none-eabi/4.8/../../../arm-none-eabi/lib/armv7-m/libc.a(lib_a-memmove.o)
 .debug_abbrev  0x0000000000000756       0x9f /usr/lib/gcc/arm-none-eabi/4.8/../../../arm-none-eabi/lib/armv7-m/libc.a(lib_a-memset.o)
 .debug_abbrev  0x00000000000007f5       0x83 /usr/lib/gcc/arm-none-eabi/4.8/../../../arm-none-eabi/lib/armv7-m/libc.a(lib_a-strchr.o)
 .debug_abbrev  0x0000000000000878       0x72 /usr/lib/gcc/arm-none-eabi/4.8/../../../arm-none-eabi/lib/armv7-m/libc.a(lib_a-strcpy.o)
 .debug_abbrev  0x00000000000008ea       0x70 /usr/lib/gcc/arm-none-eabi/4.8/../../../arm-none-eabi/lib/armv7-m/libc.a(lib_a-strlen.o)
 .debug_abbrev  0x000000000000095a       0x81 /usr/lib/gcc/arm-none-eabi/4.8/../../../arm-none-eabi/lib/armv7-m/libc.a(lib_a-strncmp.o)
 .debug_abbrev  0x00000000000009db       0x9f /usr/lib/gcc/arm-none-eabi/4.8/../../../arm-none-eabi/lib/armv7-m/libc.a(lib_a-strncpy.o)
 .debug_abbrev  0x0000000000000a7a      0x207 /usr/lib/gcc/arm-none-eabi/4.8/../../../arm-none-eabi/lib/armv7-m/libc.a(lib_a-strtol.o)
 .debug_abbrev  0x0000000000000c81       0x4e /usr/lib/gcc/arm-none-eabi/4.8/../../../arm-none-eabi/lib/armv7-m/libc.a(lib_a-ctype_.o)
 .debug_abbrev  0x0000000000000ccf      0x180 /usr/lib/gcc/arm-none-eabi/4.8/../../../arm-none-eabi/lib/armv7-m/libc.a(lib_a-impure.o)

.debug_aranges  0x0000000000000000      0x260
 .debug_aranges
                0x0000000000000000       0x20 /usr/lib/gcc/arm-none-eabi/4.8/armv7-m/libgcc.a(_aeabi_uldivmod.o)
 .debug_aranges
                0x0000000000000020       0x20 /usr/lib/gcc/arm-none-eabi/4.8/armv7-m/libgcc.a(bpabi.o)
 .debug_aranges
                0x0000000000000040       0x20 /usr/lib/gcc/arm-none-eabi/4.8/armv7-m/libgcc.a(_dvmd_tls.o)
 .debug_aranges
                0x0000000000000060       0x20 /usr/lib/gcc/arm-none-eabi/4.8/armv7-m/libgcc.a(_divdi3.o)
 .debug_aranges
                0x0000000000000080       0x20 /usr/lib/gcc/arm-none-eabi/4.8/armv7-m/libgcc.a(_udivdi3.o)
 .debug_aranges
                0x00000000000000a0       0x28 /usr/lib/gcc/arm-none-eabi/4.8/../../../arm-none-eabi/lib/armv7-m/libc.a(lib_a-atoi.o)
 .debug_aranges
                0x00000000000000c8       0x20 /usr/lib/gcc/arm-none-eabi/4.8/../../../arm-none-eabi/lib/armv7-m/libc.a(lib_a-memchr-stub.o)
 .debug_aranges
                0x00000000000000e8       0x20 /usr/lib/gcc/arm-none-eabi/4.8/../../../arm-none-eabi/lib/armv7-m/libc.a(lib_a-memcmp.o)
 .debug_aranges
                0x0000000000000108       0x20 /usr/lib/gcc/arm-none-eabi/4.8/../../../arm-none-eabi/lib/armv7-m/libc.a(lib_a-memcpy.o)
 .debug_aranges
                0x0000000000000128       0x20 /usr/lib/gcc/arm-none-eabi/4.8/../../../arm-none-eabi/lib/armv7-m/libc.a(lib_a-memmove.o)
 .debug_aranges
                0x0000000000000148       0x20 /usr/lib/gcc/arm-none-eabi/4.8/../../../arm-none-eabi/lib/armv7-m/libc.a(lib_a-memset.o)
 .debug_aranges
                0x0000000000000168       0x20 /usr/lib/gcc/arm-none-eabi/4.8/../../../arm-none-eabi/lib/armv7-m/libc.a(lib_a-strchr.o)
 .debug_aranges
                0x0000000000000188       0x20 /usr/lib/gcc/arm-none-eabi/4.8/../../../arm-none-eabi/lib/armv7-m/libc.a(lib_a-strcpy.o)
 .debug_aranges
                0x00000000000001a8       0x20 /usr/lib/gcc/arm-none-eabi/4.8/../../../arm-none-eabi/lib/armv7-m/libc.a(lib_a-strlen.o)
 .debug_aranges
                0x00000000000001c8       0x20 /usr/lib/gcc/arm-none-eabi/4.8/../../../arm-none-eabi/lib/armv7-m/libc.a(lib_a-strncmp.o)
 .debug_aranges
                0x00000000000001e8       0x20 /usr/lib/gcc/arm-none-eabi/4.8/../../../arm-none-eabi/lib/armv7-m/libc.a(lib_a-strncpy.o)
 .debug_aranges
                0x0000000000000208       0x28 /usr/lib/gcc/arm-none-eabi/4.8/../../../arm-none-eabi/lib/armv7-m/libc.a(lib_a-strtol.o)
 .debug_aranges
                0x0000000000000230       0x18 /usr/lib/gcc/arm-none-eabi/4.8/../../../arm-none-eabi/lib/armv7-m/libc.a(lib_a-ctype_.o)
 .debug_aranges
                0x0000000000000248       0x18 /usr/lib/gcc/arm-none-eabi/4.8/../../../arm-none-eabi/lib/armv7-m/libc.a(lib_a-impure.o)

.debug_loc      0x0000000000000000     0x296e
 .debug_loc     0x0000000000000000       0xa0 /usr/lib/gcc/arm-none-eabi/4.8/armv7-m/libgcc.a(bpabi.o)
 .debug_loc     0x00000000000000a0      0xc65 /usr/lib/gcc/arm-none-eabi/4.8/armv7-m/libgcc.a(_divdi3.o)
 .debug_loc     0x0000000000000d05      0xd14 /usr/lib/gcc/arm-none-eabi/4.8/armv7-m/libgcc.a(_udivdi3.o)
 .debug_loc     0x0000000000001a19       0x63 /usr/lib/gcc/arm-none-eabi/4.8/../../../arm-none-eabi/lib/armv7-m/libc.a(lib_a-atoi.o)
 .debug_loc     0x0000000000001a7c      0x17b /usr/lib/gcc/arm-none-eabi/4.8/../../../arm-none-eabi/lib/armv7-m/libc.a(lib_a-memchr-stub.o)
 .debug_loc     0x0000000000001bf7       0xe3 /usr/lib/gcc/arm-none-eabi/4.8/../../../arm-none-eabi/lib/armv7-m/libc.a(lib_a-memcmp.o)
 .debug_loc     0x0000000000001cda      0x2ca /usr/lib/gcc/arm-none-eabi/4.8/../../../arm-none-eabi/lib/armv7-m/libc.a(lib_a-memmove.o)
 .debug_loc     0x0000000000001fa4      0x18b /usr/lib/gcc/arm-none-eabi/4.8/../../../arm-none-eabi/lib/armv7-m/libc.a(lib_a-memset.o)
 .debug_loc     0x000000000000212f      0x20e /usr/lib/gcc/arm-none-eabi/4.8/../../../arm-none-eabi/lib/armv7-m/libc.a(lib_a-strchr.o)
 .debug_loc     0x000000000000233d       0x21 /usr/lib/gcc/arm-none-eabi/4.8/../../../arm-none-eabi/lib/armv7-m/libc.a(lib_a-strcpy.o)
 .debug_loc     0x000000000000235e       0x21 /usr/lib/gcc/arm-none-eabi/4.8/../../../arm-none-eabi/lib/armv7-m/libc.a(lib_a-strlen.o)
 .debug_loc     0x000000000000237f      0x139 /usr/lib/gcc/arm-none-eabi/4.8/../../../arm-none-eabi/lib/armv7-m/libc.a(lib_a-strncmp.o)
 .debug_loc     0x00000000000024b8      0x15b /usr/lib/gcc/arm-none-eabi/4.8/../../../arm-none-eabi/lib/armv7-m/libc.a(lib_a-strncpy.o)
 .debug_loc     0x0000000000002613      0x35b /usr/lib/gcc/arm-none-eabi/4.8/../../../arm-none-eabi/lib/armv7-m/libc.a(lib_a-strtol.o)

.debug_str      0x0000000000000000      0xc39
 .debug_str     0x0000000000000000      0x16b /usr/lib/gcc/arm-none-eabi/4.8/armv7-m/libgcc.a(bpabi.o)
 .debug_str     0x000000000000016b      0x15a /usr/lib/gcc/arm-none-eabi/4.8/armv7-m/libgcc.a(_divdi3.o)
                                        0x219 (size before relaxing)
 .debug_str     0x00000000000002c5      0x21a /usr/lib/gcc/arm-none-eabi/4.8/armv7-m/libgcc.a(_udivdi3.o)
 .debug_str     0x00000000000002c5      0x4bd /usr/lib/gcc/arm-none-eabi/4.8/../../../arm-none-eabi/lib/armv7-m/libc.a(lib_a-atoi.o)
                                        0x562 (size before relaxing)
 .debug_str     0x0000000000000782       0xc6 /usr/lib/gcc/arm-none-eabi/4.8/../../../arm-none-eabi/lib/armv7-m/libc.a(lib_a-memchr-stub.o)
                                        0x1ca (size before relaxing)
 .debug_str     0x0000000000000848       0x93 /usr/lib/gcc/arm-none-eabi/4.8/../../../arm-none-eabi/lib/armv7-m/libc.a(lib_a-memcmp.o)
                                        0x19e (size before relaxing)
 .debug_str     0x00000000000008db       0x58 /usr/lib/gcc/arm-none-eabi/4.8/../../../arm-none-eabi/lib/armv7-m/libc.a(lib_a-memmove.o)
                                        0x1d1 (size before relaxing)
 .debug_str     0x0000000000000933       0x49 /usr/lib/gcc/arm-none-eabi/4.8/../../../arm-none-eabi/lib/armv7-m/libc.a(lib_a-memset.o)
                                        0x1b2 (size before relaxing)
 .debug_str     0x000000000000097c       0x35 /usr/lib/gcc/arm-none-eabi/4.8/../../../arm-none-eabi/lib/armv7-m/libc.a(lib_a-strchr.o)
                                        0x1a9 (size before relaxing)
 .debug_str     0x00000000000009b1       0x3d /usr/lib/gcc/arm-none-eabi/4.8/../../../arm-none-eabi/lib/armv7-m/libc.a(lib_a-strcpy.o)
                                        0x1a4 (size before relaxing)
 .debug_str     0x00000000000009ee       0x3d /usr/lib/gcc/arm-none-eabi/4.8/../../../arm-none-eabi/lib/armv7-m/libc.a(lib_a-strlen.o)
                                        0x1ab (size before relaxing)
 .debug_str     0x0000000000000a2b       0x37 /usr/lib/gcc/arm-none-eabi/4.8/../../../arm-none-eabi/lib/armv7-m/libc.a(lib_a-strncmp.o)
                                        0x1a0 (size before relaxing)
 .debug_str     0x0000000000000a62       0x41 /usr/lib/gcc/arm-none-eabi/4.8/../../../arm-none-eabi/lib/armv7-m/libc.a(lib_a-strncpy.o)
                                        0x1c8 (size before relaxing)
 .debug_str     0x0000000000000aa3       0x5b /usr/lib/gcc/arm-none-eabi/4.8/../../../arm-none-eabi/lib/armv7-m/libc.a(lib_a-strtol.o)
                                        0x595 (size before relaxing)
 .debug_str     0x0000000000000afe       0x92 /usr/lib/gcc/arm-none-eabi/4.8/../../../arm-none-eabi/lib/armv7-m/libc.a(lib_a-ctype_.o)
                                        0x120 (size before relaxing)
 .debug_str     0x0000000000000b90       0xa9 /usr/lib/gcc/arm-none-eabi/4.8/../../../arm-none-eabi/lib/armv7-m/libc.a(lib_a-impure.o)
                                        0x56f (size before relaxing)

.debug_frame    0x0000000000000000      0x2b0
 .debug_frame   0x0000000000000000       0x58 /usr/lib/gcc/arm-none-eabi/4.8/armv7-m/libgcc.a(bpabi.o)
 .debug_frame   0x0000000000000058       0x34 /usr/lib/gcc/arm-none-eabi/4.8/armv7-m/libgcc.a(_divdi3.o)
 .debug_frame   0x000000000000008c       0x34 /usr/lib/gcc/arm-none-eabi/4.8/armv7-m/libgcc.a(_udivdi3.o)
 .debug_frame   0x00000000000000c0       0x30 /usr/lib/gcc/arm-none-eabi/4.8/../../../arm-none-eabi/lib/armv7-m/libc.a(lib_a-atoi.o)
 .debug_frame   0x00000000000000f0       0x2c /usr/lib/gcc/arm-none-eabi/4.8/../../../arm-none-eabi/lib/armv7-m/libc.a(lib_a-memchr-stub.o)
 .debug_frame   0x000000000000011c       0x2c /usr/lib/gcc/arm-none-eabi/4.8/../../../arm-none-eabi/lib/armv7-m/libc.a(lib_a-memcmp.o)
 .debug_frame   0x0000000000000148       0x2c /usr/lib/gcc/arm-none-eabi/4.8/../../../arm-none-eabi/lib/armv7-m/libc.a(lib_a-memmove.o)
 .debug_frame   0x0000000000000174       0x2c /usr/lib/gcc/arm-none-eabi/4.8/../../../arm-none-eabi/lib/armv7-m/libc.a(lib_a-memset.o)
 .debug_frame   0x00000000000001a0       0x2c /usr/lib/gcc/arm-none-eabi/4.8/../../../arm-none-eabi/lib/armv7-m/libc.a(lib_a-strchr.o)
 .debug_frame   0x00000000000001cc       0x20 /usr/lib/gcc/arm-none-eabi/4.8/../../../arm-none-eabi/lib/armv7-m/libc.a(lib_a-strcpy.o)
 .debug_frame   0x00000000000001ec       0x20 /usr/lib/gcc/arm-none-eabi/4.8/../../../arm-none-eabi/lib/armv7-m/libc.a(lib_a-strlen.o)
 .debug_frame   0x000000000000020c       0x28 /usr/lib/gcc/arm-none-eabi/4.8/../../../arm-none-eabi/lib/armv7-m/libc.a(lib_a-strncmp.o)
 .debug_frame   0x0000000000000234       0x2c /usr/lib/gcc/arm-none-eabi/4.8/../../../arm-none-eabi/lib/armv7-m/libc.a(lib_a-strncpy.o)
 .debug_frame   0x0000000000000260       0x50 /usr/lib/gcc/arm-none-eabi/4.8/../../../arm-none-eabi/lib/armv7-m/libc.a(lib_a-strtol.o)

.debug_ranges   0x0000000000000000      0x2b0
 .debug_ranges  0x0000000000000000       0xf0 /usr/lib/gcc/arm-none-eabi/4.8/armv7-m/libgcc.a(_divdi3.o)
 .debug_ranges  0x00000000000000f0      0x100 /usr/lib/gcc/arm-none-eabi/4.8/armv7-m/libgcc.a(_udivdi3.o)
 .debug_ranges  0x00000000000001f0       0x18 /usr/lib/gcc/arm-none-eabi/4.8/../../../arm-none-eabi/lib/armv7-m/libc.a(lib_a-atoi.o)
 .debug_ranges  0x0000000000000208       0x10 /usr/lib/gcc/arm-none-eabi/4.8/../../../arm-none-eabi/lib/armv7-m/libc.a(lib_a-memchr-stub.o)
 .debug_ranges  0x0000000000000218       0x10 /usr/lib/gcc/arm-none-eabi/4.8/../../../arm-none-eabi/lib/armv7-m/libc.a(lib_a-memcmp.o)
 .debug_ranges  0x0000000000000228       0x10 /usr/lib/gcc/arm-none-eabi/4.8/../../../arm-none-eabi/lib/armv7-m/libc.a(lib_a-memmove.o)
 .debug_ranges  0x0000000000000238       0x10 /usr/lib/gcc/arm-none-eabi/4.8/../../../arm-none-eabi/lib/armv7-m/libc.a(lib_a-memset.o)
 .debug_ranges  0x0000000000000248       0x10 /usr/lib/gcc/arm-none-eabi/4.8/../../../arm-none-eabi/lib/armv7-m/libc.a(lib_a-strchr.o)
 .debug_ranges  0x0000000000000258       0x10 /usr/lib/gcc/arm-none-eabi/4.8/../../../arm-none-eabi/lib/armv7-m/libc.a(lib_a-strcpy.o)
 .debug_ranges  0x0000000000000268       0x10 /usr/lib/gcc/arm-none-eabi/4.8/../../../arm-none-eabi/lib/armv7-m/libc.a(lib_a-strlen.o)
 .debug_ranges  0x0000000000000278       0x10 /usr/lib/gcc/arm-none-eabi/4.8/../../../arm-none-eabi/lib/armv7-m/libc.a(lib_a-strncmp.o)
 .debug_ranges  0x0000000000000288       0x10 /usr/lib/gcc/arm-none-eabi/4.8/../../../arm-none-eabi/lib/armv7-m/libc.a(lib_a-strncpy.o)
 .debug_ranges  0x0000000000000298       0x18 /usr/lib/gcc/arm-none-eabi/4.8/../../../arm-none-eabi/lib/armv7-m/libc.a(lib_a-strtol.o)

Cross Reference Table

Symbol                                            File
__aeabi_idiv0                                     /usr/lib/gcc/arm-none-eabi/4.8/armv7-m/libgcc.a(_dvmd_tls.o)
__aeabi_ldiv0                                     /usr/lib/gcc/arm-none-eabi/4.8/armv7-m/libgcc.a(_dvmd_tls.o)
                                                  /usr/lib/gcc/arm-none-eabi/4.8/armv7-m/libgcc.a(_aeabi_uldivmod.o)
__aeabi_uldivmod                                  /usr/lib/gcc/arm-none-eabi/4.8/armv7-m/libgcc.a(_aeabi_uldivmod.o)
                                                  contiki-cc2538dk.a(strformat.o)
__cca                                             obj_cc2538dk/startup-gcc.o
__ctype_ptr__                                     /usr/lib/gcc/arm-none-eabi/4.8/../../../arm-none-eabi/lib/armv7-m/libc.a(lib_a-ctype_.o)
                                                  /usr/lib/gcc/arm-none-eabi/4.8/../../../arm-none-eabi/lib/armv7-m/libc.a(lib_a-strtol.o)
__divdi3                                          /usr/lib/gcc/arm-none-eabi/4.8/armv7-m/libgcc.a(_divdi3.o)
                                                  /usr/lib/gcc/arm-none-eabi/4.8/armv7-m/libgcc.a(bpabi.o)
__gnu_ldivmod_helper                              /usr/lib/gcc/arm-none-eabi/4.8/armv7-m/libgcc.a(bpabi.o)
__gnu_uldivmod_helper                             /usr/lib/gcc/arm-none-eabi/4.8/armv7-m/libgcc.a(bpabi.o)
                                                  /usr/lib/gcc/arm-none-eabi/4.8/armv7-m/libgcc.a(_aeabi_uldivmod.o)
__udivdi3                                         /usr/lib/gcc/arm-none-eabi/4.8/armv7-m/libgcc.a(_udivdi3.o)
                                                  /usr/lib/gcc/arm-none-eabi/4.8/armv7-m/libgcc.a(bpabi.o)
_atoi_r                                           /usr/lib/gcc/arm-none-eabi/4.8/../../../arm-none-eabi/lib/armv7-m/libc.a(lib_a-atoi.o)
_bss                                              obj_cc2538dk/startup-gcc.o
_ctype_                                           /usr/lib/gcc/arm-none-eabi/4.8/../../../arm-none-eabi/lib/armv7-m/libc.a(lib_a-ctype_.o)
_data                                             obj_cc2538dk/startup-gcc.o
_ebss                                             obj_cc2538dk/startup-gcc.o
_edata                                            obj_cc2538dk/startup-gcc.o
_global_impure_ptr                                /usr/lib/gcc/arm-none-eabi/4.8/../../../arm-none-eabi/lib/armv7-m/libc.a(lib_a-impure.o)
_impure_ptr                                       /usr/lib/gcc/arm-none-eabi/4.8/../../../arm-none-eabi/lib/armv7-m/libc.a(lib_a-impure.o)
                                                  /usr/lib/gcc/arm-none-eabi/4.8/../../../arm-none-eabi/lib/armv7-m/libc.a(lib_a-strtol.o)
_ldata                                            obj_cc2538dk/startup-gcc.o
_strtol_r                                         /usr/lib/gcc/arm-none-eabi/4.8/../../../arm-none-eabi/lib/armv7-m/libc.a(lib_a-strtol.o)
                                                  /usr/lib/gcc/arm-none-eabi/4.8/../../../arm-none-eabi/lib/armv7-m/libc.a(lib_a-atoi.o)
_text                                             obj_cc2538dk/startup-gcc.o
activate_coap_resources                           borderest.co
adc_get                                           contiki-cc2538dk.a(adc.o)
                                                  contiki-cc2538dk.a(vdd3-sensor.o)
                                                  contiki-cc2538dk.a(cc2538-temp-sen)
                                                  contiki-cc2538dk.a(als-sensor.o)
adc_init                                          contiki-cc2538dk.a(adc.o)
                                                  contiki-cc2538dk.a(contiki-main.o)
als_sensor                                        contiki-cc2538dk.a(als-sensor.o)
                                                  contiki-cc2538dk.a(smartrf-sensors)
atoi                                              /usr/lib/gcc/arm-none-eabi/4.8/../../../arm-none-eabi/lib/armv7-m/libc.a(lib_a-atoi.o)
                                                  obj_cc2538dk/res-hello.o
autostart_exit                                    contiki-cc2538dk.a(autostart.o)
autostart_processes                               borderest.co
                                                  contiki-cc2538dk.a(contiki-main.o)
autostart_start                                   contiki-cc2538dk.a(autostart.o)
                                                  contiki-cc2538dk.a(contiki-main.o)
borderest_process                                 borderest.co
button_down_sensor                                contiki-cc2538dk.a(button-sensor.o)
                                                  contiki-cc2538dk.a(smartrf-sensors)
button_left_sensor                                contiki-cc2538dk.a(button-sensor.o)
                                                  contiki-cc2538dk.a(smartrf-sensors)
button_right_sensor                               contiki-cc2538dk.a(button-sensor.o)
                                                  contiki-cc2538dk.a(smartrf-sensors)
button_select_sensor                              contiki-cc2538dk.a(button-sensor.o)
                                                  contiki-cc2538dk.a(smartrf-sensors)
                                                  borderest.co
button_sensor_init                                contiki-cc2538dk.a(button-sensor.o)
                                                  contiki-cc2538dk.a(contiki-main.o)
button_up_sensor                                  contiki-cc2538dk.a(button-sensor.o)
                                                  contiki-cc2538dk.a(smartrf-sensors)
cc2538_rf_driver                                  contiki-cc2538dk.a(cc2538-rf.o)
                                                  contiki-cc2538dk.a(contikimac.o)
                                                  contiki-cc2538dk.a(netstack.o)
                                                  contiki-cc2538dk.a(contiki-main.o)
cc2538_rf_err_isr                                 contiki-cc2538dk.a(cc2538-rf.o)
                                                  obj_cc2538dk/startup-gcc.o
cc2538_rf_process                                 contiki-cc2538dk.a(cc2538-rf.o)
cc2538_rf_rx_tx_isr                               contiki-cc2538dk.a(cc2538-rf.o)
                                                  obj_cc2538dk/startup-gcc.o
cc2538_rf_set_promiscous_mode                     contiki-cc2538dk.a(cc2538-rf.o)
cc2538_temp_sensor                                contiki-cc2538dk.a(cc2538-temp-sen)
                                                  contiki-cc2538dk.a(smartrf-sensors)
clock_adjust                                      contiki-cc2538dk.a(clock.o)
                                                  contiki-cc2538dk.a(lpm.o)
clock_delay                                       contiki-cc2538dk.a(clock.o)
                                                  contiki-cc2538dk.a(leds.o)
clock_delay_usec                                  contiki-cc2538dk.a(clock.o)
                                                  contiki-cc2538dk.a(cc2538-rf.o)
                                                  contiki-cc2538dk.a(als-sensor.o)
clock_init                                        contiki-cc2538dk.a(clock.o)
                                                  contiki-cc2538dk.a(contiki-main.o)
clock_isr                                         contiki-cc2538dk.a(clock.o)
                                                  obj_cc2538dk/startup-gcc.o
clock_seconds                                     contiki-cc2538dk.a(clock.o)
                                                  contiki-cc2538dk.a(stimer.o)
clock_set_seconds                                 contiki-cc2538dk.a(clock.o)
clock_time                                        contiki-cc2538dk.a(clock.o)
                                                  contiki-cc2538dk.a(rpl.o)
                                                  contiki-cc2538dk.a(rpl-timers.o)
                                                  contiki-cc2538dk.a(rpl-dag.o)
                                                  contiki-cc2538dk.a(timer.o)
                                                  contiki-cc2538dk.a(etimer.o)
clock_wait                                        contiki-cc2538dk.a(clock.o)
coap_add_observer                                 contiki-cc2538dk.a(er-coap-observe)
coap_blocking_request                             contiki-cc2538dk.a(er-coap-engine.)
coap_blocking_request_callback                    contiki-cc2538dk.a(er-coap-engine.)
coap_check_transactions                           contiki-cc2538dk.a(er-coap-transac)
                                                  contiki-cc2538dk.a(er-coap-engine.)
coap_clear_transaction                            contiki-cc2538dk.a(er-coap-transac)
                                                  contiki-cc2538dk.a(er-coap-engine.)
coap_engine                                       contiki-cc2538dk.a(er-coap-engine.)
coap_error_message                                contiki-cc2538dk.a(er-coap.o)
                                                  contiki-cc2538dk.a(er-coap-engine.)
coap_get_header_accept                            contiki-cc2538dk.a(er-coap.o)
                                                  contiki-cc2538dk.a(er-coap-engine.)
coap_get_header_block1                            contiki-cc2538dk.a(er-coap.o)
coap_get_header_block2                            contiki-cc2538dk.a(er-coap.o)
                                                  contiki-cc2538dk.a(er-coap-engine.)
coap_get_header_content_format                    contiki-cc2538dk.a(er-coap.o)
                                                  contiki-cc2538dk.a(er-coap-engine.)
coap_get_header_etag                              contiki-cc2538dk.a(er-coap.o)
coap_get_header_if_match                          contiki-cc2538dk.a(er-coap.o)
                                                  contiki-cc2538dk.a(er-coap-engine.)
coap_get_header_if_none_match                     contiki-cc2538dk.a(er-coap.o)
                                                  contiki-cc2538dk.a(er-coap-engine.)
coap_get_header_location_path                     contiki-cc2538dk.a(er-coap.o)
coap_get_header_location_query                    contiki-cc2538dk.a(er-coap.o)
coap_get_header_max_age                           contiki-cc2538dk.a(er-coap.o)
                                                  contiki-cc2538dk.a(er-coap-engine.)
coap_get_header_observe                           contiki-cc2538dk.a(er-coap.o)
coap_get_header_proxy_uri                         contiki-cc2538dk.a(er-coap.o)
coap_get_header_size1                             contiki-cc2538dk.a(er-coap.o)
coap_get_header_size2                             contiki-cc2538dk.a(er-coap.o)
                                                  contiki-cc2538dk.a(er-coap-engine.)
coap_get_header_uri_host                          contiki-cc2538dk.a(er-coap.o)
                                                  contiki-cc2538dk.a(er-coap-engine.)
coap_get_header_uri_path                          contiki-cc2538dk.a(er-coap.o)
                                                  contiki-cc2538dk.a(er-coap-engine.)
coap_get_header_uri_query                         contiki-cc2538dk.a(er-coap.o)
                                                  contiki-cc2538dk.a(er-coap-engine.)
coap_get_mid                                      contiki-cc2538dk.a(er-coap.o)
                                                  contiki-cc2538dk.a(er-coap-observe)
                                                  contiki-cc2538dk.a(er-coap-engine.)
coap_get_payload                                  contiki-cc2538dk.a(er-coap.o)
                                                  contiki-cc2538dk.a(er-coap-engine.)
coap_get_post_variable                            contiki-cc2538dk.a(er-coap.o)
                                                  contiki-cc2538dk.a(er-coap-engine.)
coap_get_query_variable                           contiki-cc2538dk.a(er-coap.o)
                                                  contiki-cc2538dk.a(er-coap-engine.)
coap_get_rest_method                              contiki-cc2538dk.a(er-coap-engine.)
coap_get_transaction_by_mid                       contiki-cc2538dk.a(er-coap-transac)
                                                  contiki-cc2538dk.a(er-coap-engine.)
coap_init_connection                              contiki-cc2538dk.a(er-coap.o)
                                                  contiki-cc2538dk.a(er-coap-engine.)
coap_init_engine                                  contiki-cc2538dk.a(er-coap-engine.)
coap_init_message                                 contiki-cc2538dk.a(er-coap.o)
                                                  contiki-cc2538dk.a(er-coap-observe)
                                                  contiki-cc2538dk.a(er-coap-engine.)
coap_new_transaction                              contiki-cc2538dk.a(er-coap-transac)
                                                  contiki-cc2538dk.a(er-coap-observe)
                                                  contiki-cc2538dk.a(er-coap-engine.)
coap_notify_observers                             contiki-cc2538dk.a(er-coap-observe)
                                                  contiki-cc2538dk.a(er-coap-engine.)
coap_observe_handler                              contiki-cc2538dk.a(er-coap-observe)
                                                  contiki-cc2538dk.a(er-coap-engine.)
coap_parse_message                                contiki-cc2538dk.a(er-coap.o)
                                                  contiki-cc2538dk.a(er-coap-engine.)
coap_register_as_transaction_handler              contiki-cc2538dk.a(er-coap-transac)
                                                  contiki-cc2538dk.a(er-coap-engine.)
coap_remove_observer                              contiki-cc2538dk.a(er-coap-observe)
coap_remove_observer_by_client                    contiki-cc2538dk.a(er-coap-observe)
                                                  contiki-cc2538dk.a(er-coap-transac)
coap_remove_observer_by_mid                       contiki-cc2538dk.a(er-coap-observe)
                                                  contiki-cc2538dk.a(er-coap-engine.)
coap_remove_observer_by_token                     contiki-cc2538dk.a(er-coap-observe)
coap_remove_observer_by_uri                       contiki-cc2538dk.a(er-coap-observe)
coap_rest_implementation                          contiki-cc2538dk.a(er-coap-engine.)
                                                  contiki-cc2538dk.a(rest-engine.o)
                                                  obj_cc2538dk/res-hello.o
                                                  obj_cc2538dk/res-leds.o
coap_send_message                                 contiki-cc2538dk.a(er-coap.o)
                                                  contiki-cc2538dk.a(er-coap-transac)
                                                  contiki-cc2538dk.a(er-coap-engine.)
coap_send_transaction                             contiki-cc2538dk.a(er-coap-transac)
                                                  contiki-cc2538dk.a(er-coap-observe)
                                                  contiki-cc2538dk.a(er-coap-engine.)
coap_serialize_message                            contiki-cc2538dk.a(er-coap.o)
                                                  contiki-cc2538dk.a(er-coap-observe)
                                                  contiki-cc2538dk.a(er-coap-engine.)
coap_set_header_accept                            contiki-cc2538dk.a(er-coap.o)
coap_set_header_block1                            contiki-cc2538dk.a(er-coap.o)
coap_set_header_block2                            contiki-cc2538dk.a(er-coap.o)
                                                  contiki-cc2538dk.a(er-coap-engine.)
coap_set_header_content_format                    contiki-cc2538dk.a(er-coap.o)
                                                  contiki-cc2538dk.a(er-coap-res-wel)
                                                  contiki-cc2538dk.a(er-coap-engine.)
coap_set_header_etag                              contiki-cc2538dk.a(er-coap.o)
                                                  contiki-cc2538dk.a(er-coap-engine.)
coap_set_header_if_match                          contiki-cc2538dk.a(er-coap.o)
coap_set_header_if_none_match                     contiki-cc2538dk.a(er-coap.o)
coap_set_header_location_path                     contiki-cc2538dk.a(er-coap.o)
                                                  contiki-cc2538dk.a(er-coap-engine.)
coap_set_header_location_query                    contiki-cc2538dk.a(er-coap.o)
coap_set_header_max_age                           contiki-cc2538dk.a(er-coap.o)
                                                  contiki-cc2538dk.a(er-coap-engine.)
coap_set_header_observe                           contiki-cc2538dk.a(er-coap.o)
                                                  contiki-cc2538dk.a(er-coap-observe)
coap_set_header_proxy_uri                         contiki-cc2538dk.a(er-coap.o)
coap_set_header_size1                             contiki-cc2538dk.a(er-coap.o)
coap_set_header_size2                             contiki-cc2538dk.a(er-coap.o)
                                                  contiki-cc2538dk.a(er-coap-engine.)
coap_set_header_uri_host                          contiki-cc2538dk.a(er-coap.o)
coap_set_header_uri_path                          contiki-cc2538dk.a(er-coap.o)
coap_set_header_uri_query                         contiki-cc2538dk.a(er-coap.o)
coap_set_payload                                  contiki-cc2538dk.a(er-coap.o)
                                                  contiki-cc2538dk.a(er-coap-res-wel)
                                                  contiki-cc2538dk.a(er-coap-observe)
                                                  contiki-cc2538dk.a(er-coap-engine.)
coap_set_service_callback                         contiki-cc2538dk.a(er-coap-engine.)
coap_set_status_code                              contiki-cc2538dk.a(er-coap.o)
                                                  contiki-cc2538dk.a(er-coap-res-wel)
                                                  contiki-cc2538dk.a(er-coap-engine.)
coap_set_token                                    contiki-cc2538dk.a(er-coap.o)
                                                  contiki-cc2538dk.a(er-coap-observe)
                                                  contiki-cc2538dk.a(er-coap-engine.)
contikimac_debug_print                            contiki-cc2538dk.a(contikimac.o)
contikimac_driver                                 contiki-cc2538dk.a(contikimac.o)
                                                  contiki-cc2538dk.a(csma.o)
                                                  contiki-cc2538dk.a(netstack.o)
                                                  contiki-cc2538dk.a(cc2538-rf.o)
                                                  contiki-cc2538dk.a(contiki-main.o)
cpu_cpsid                                         contiki-cc2538dk.a(cpu.o)
                                                  contiki-cc2538dk.a(watchdog.o)
                                                  contiki-cc2538dk.a(rtimer-arch.o)
cpu_cpsie                                         contiki-cc2538dk.a(cpu.o)
                                                  contiki-cc2538dk.a(rtimer-arch.o)
                                                  contiki-cc2538dk.a(contiki-main.o)
crypto_disable                                    contiki-cc2538dk.a(crypto.o)
crypto_enable                                     contiki-cc2538dk.a(crypto.o)
crypto_init                                       contiki-cc2538dk.a(crypto.o)
crypto_isr                                        contiki-cc2538dk.a(crypto.o)
                                                  obj_cc2538dk/startup-gcc.o
crypto_register_process_notification              contiki-cc2538dk.a(crypto.o)
csma_driver                                       contiki-cc2538dk.a(csma.o)
                                                  contiki-cc2538dk.a(nullsec.o)
                                                  contiki-cc2538dk.a(contikimac.o)
                                                  contiki-cc2538dk.a(netstack.o)
                                                  contiki-cc2538dk.a(contiki-main.o)
                                                  borderest.co
ctimer_expired                                    contiki-cc2538dk.a(ctimer.o)
ctimer_init                                       contiki-cc2538dk.a(ctimer.o)
                                                  contiki-cc2538dk.a(contiki-main.o)
ctimer_process                                    contiki-cc2538dk.a(ctimer.o)
ctimer_reset                                      contiki-cc2538dk.a(ctimer.o)
                                                  contiki-cc2538dk.a(rpl-timers.o)
ctimer_restart                                    contiki-cc2538dk.a(ctimer.o)
ctimer_set                                        contiki-cc2538dk.a(ctimer.o)
                                                  contiki-cc2538dk.a(contikimac.o)
                                                  contiki-cc2538dk.a(csma.o)
                                                  contiki-cc2538dk.a(rpl-timers.o)
ctimer_stop                                       contiki-cc2538dk.a(ctimer.o)
                                                  contiki-cc2538dk.a(contikimac.o)
                                                  contiki-cc2538dk.a(csma.o)
                                                  contiki-cc2538dk.a(rpl-timers.o)
                                                  contiki-cc2538dk.a(rpl-dag.o)
dao_ack_output                                    contiki-cc2538dk.a(rpl-icmp6.o)
dao_output                                        contiki-cc2538dk.a(rpl-icmp6.o)
                                                  contiki-cc2538dk.a(rpl-timers.o)
                                                  contiki-cc2538dk.a(rpl-dag.o)
dao_output_target                                 contiki-cc2538dk.a(rpl-icmp6.o)
                                                  contiki-cc2538dk.a(rpl.o)
                                                  contiki-cc2538dk.a(rpl-ext-header.)
dbg_send_bytes                                    contiki-cc2538dk.a(dbg.o)
                                                  contiki-cc2538dk.a(dbg-printf.o)
default_handler                                   obj_cc2538dk/startup-gcc.o
default_instance                                  contiki-cc2538dk.a(rpl-dag.o)
                                                  contiki-cc2538dk.a(rpl.o)
                                                  contiki-cc2538dk.a(rpl-ext-header.)
dio_output                                        contiki-cc2538dk.a(rpl-icmp6.o)
                                                  contiki-cc2538dk.a(rpl-timers.o)
dis_output                                        contiki-cc2538dk.a(rpl-icmp6.o)
                                                  contiki-cc2538dk.a(rpl-timers.o)
ds6_neighbors                                     contiki-cc2538dk.a(uip-ds6-nbr.o)
                                                  contiki-cc2538dk.a(rpl-dag.o)
                                                  borderest.co
energest_flush                                    contiki-cc2538dk.a(energest.o)
energest_init                                     contiki-cc2538dk.a(energest.o)
                                                  contiki-cc2538dk.a(contiki-main.o)
energest_type_set                                 contiki-cc2538dk.a(energest.o)
energest_type_time                                contiki-cc2538dk.a(energest.o)
erbium_status_code                                contiki-cc2538dk.a(er-coap.o)
                                                  contiki-cc2538dk.a(er-coap-engine.)
etimer_adjust                                     contiki-cc2538dk.a(etimer.o)
etimer_expiration_time                            contiki-cc2538dk.a(etimer.o)
                                                  contiki-cc2538dk.a(rpl-timers.o)
etimer_expired                                    contiki-cc2538dk.a(etimer.o)
                                                  contiki-cc2538dk.a(rpl-timers.o)
                                                  contiki-cc2538dk.a(tcpip.o)
                                                  contiki-cc2538dk.a(ctimer.o)
                                                  contiki-cc2538dk.a(rest-engine.o)
                                                  contiki-cc2538dk.a(er-coap-transac)
                                                  borderest.co
etimer_next_expiration_time                       contiki-cc2538dk.a(etimer.o)
etimer_pending                                    contiki-cc2538dk.a(etimer.o)
                                                  contiki-cc2538dk.a(clock.o)
etimer_process                                    contiki-cc2538dk.a(etimer.o)
                                                  contiki-cc2538dk.a(contiki-main.o)
etimer_request_poll                               contiki-cc2538dk.a(etimer.o)
                                                  contiki-cc2538dk.a(clock.o)
etimer_reset                                      contiki-cc2538dk.a(etimer.o)
                                                  contiki-cc2538dk.a(uip-ds6.o)
                                                  contiki-cc2538dk.a(ctimer.o)
                                                  contiki-cc2538dk.a(rest-engine.o)
etimer_restart                                    contiki-cc2538dk.a(etimer.o)
                                                  contiki-cc2538dk.a(tcpip.o)
                                                  contiki-cc2538dk.a(ctimer.o)
                                                  contiki-cc2538dk.a(er-coap-transac)
etimer_set                                        contiki-cc2538dk.a(etimer.o)
                                                  contiki-cc2538dk.a(tcpip.o)
                                                  contiki-cc2538dk.a(uip-ds6.o)
                                                  contiki-cc2538dk.a(ctimer.o)
                                                  contiki-cc2538dk.a(rest-engine.o)
                                                  borderest.co
etimer_start_time                                 contiki-cc2538dk.a(etimer.o)
etimer_stop                                       contiki-cc2538dk.a(etimer.o)
                                                  contiki-cc2538dk.a(ctimer.o)
                                                  contiki-cc2538dk.a(er-coap-transac)
format_str                                        contiki-cc2538dk.a(strformat.o)
format_str_v                                      contiki-cc2538dk.a(strformat.o)
                                                  contiki-cc2538dk.a(dbg-snprintf.o)
                                                  contiki-cc2538dk.a(dbg-printf.o)
frag_sender                                       contiki-cc2538dk.a(sicslowpan.o)
frame802154_create                                contiki-cc2538dk.a(frame802154.o)
                                                  contiki-cc2538dk.a(framer-802154.o)
frame802154_hdrlen                                contiki-cc2538dk.a(frame802154.o)
                                                  contiki-cc2538dk.a(framer-802154.o)
frame802154_parse                                 contiki-cc2538dk.a(frame802154.o)
                                                  contiki-cc2538dk.a(framer-802154.o)
framer_802154                                     contiki-cc2538dk.a(framer-802154.o)
                                                  contiki-cc2538dk.a(contikimac.o)
                                                  contiki-cc2538dk.a(framer.o)
                                                  contiki-cc2538dk.a(sicslowpan.o)
framer_canonical_create_and_secure                contiki-cc2538dk.a(framer.o)
                                                  contiki-cc2538dk.a(framer-802154.o)
get_match_length                                  contiki-cc2538dk.a(uip-ds6.o)
gpio_init                                         contiki-cc2538dk.a(gpio.o)
                                                  contiki-cc2538dk.a(contiki-main.o)
gpio_port_a_isr                                   contiki-cc2538dk.a(gpio.o)
                                                  obj_cc2538dk/startup-gcc.o
gpio_port_b_isr                                   contiki-cc2538dk.a(gpio.o)
                                                  obj_cc2538dk/startup-gcc.o
gpio_port_c_isr                                   contiki-cc2538dk.a(gpio.o)
                                                  obj_cc2538dk/startup-gcc.o
gpio_port_d_isr                                   contiki-cc2538dk.a(gpio.o)
                                                  obj_cc2538dk/startup-gcc.o
gpio_register_callback                            contiki-cc2538dk.a(gpio.o)
                                                  contiki-cc2538dk.a(button-sensor.o)
http_content_type_html                            obj_cc2538dk/httpd-simple.o
http_get                                          obj_cc2538dk/httpd-simple.o
http_header_200                                   obj_cc2538dk/httpd-simple.o
http_header_404                                   obj_cc2538dk/httpd-simple.o
http_index_html                                   obj_cc2538dk/httpd-simple.o
httpd_appcall                                     obj_cc2538dk/httpd-simple.o
                                                  borderest.co
httpd_init                                        obj_cc2538dk/httpd-simple.o
                                                  borderest.co
httpd_simple_get_script                           borderest.co
                                                  obj_cc2538dk/httpd-simple.o
icmp6_new                                         contiki-cc2538dk.a(tcpip.o)
ieee_addr_cpy_to                                  contiki-cc2538dk.a(ieee-addr.o)
                                                  contiki-cc2538dk.a(contiki-main.o)
instance_table                                    contiki-cc2538dk.a(rpl-dag.o)
                                                  contiki-cc2538dk.a(rpl-icmp6.o)
                                                  contiki-cc2538dk.a(rpl.o)
ioc_init                                          contiki-cc2538dk.a(ioc.o)
                                                  contiki-cc2538dk.a(contiki-main.o)
ioc_set_over                                      contiki-cc2538dk.a(ioc.o)
                                                  contiki-cc2538dk.a(uart.o)
                                                  contiki-cc2538dk.a(als-sensor.o)
                                                  contiki-cc2538dk.a(button-sensor.o)
ioc_set_sel                                       contiki-cc2538dk.a(ioc.o)
                                                  contiki-cc2538dk.a(uart.o)
leds_arch_get                                     contiki-cc2538dk.a(leds-arch.o)
                                                  contiki-cc2538dk.a(leds.o)
leds_arch_init                                    contiki-cc2538dk.a(leds-arch.o)
                                                  contiki-cc2538dk.a(leds.o)
leds_arch_set                                     contiki-cc2538dk.a(leds-arch.o)
                                                  contiki-cc2538dk.a(leds.o)
leds_blink                                        contiki-cc2538dk.a(leds.o)
leds_get                                          contiki-cc2538dk.a(leds.o)
                                                  obj_cc2538dk/res-leds.o
leds_init                                         contiki-cc2538dk.a(leds.o)
                                                  contiki-cc2538dk.a(contiki-main.o)
                                                  borderest.co
leds_off                                          contiki-cc2538dk.a(leds.o)
                                                  contiki-cc2538dk.a(contiki-main.o)
                                                  obj_cc2538dk/res-leds.o
leds_on                                           contiki-cc2538dk.a(leds.o)
                                                  contiki-cc2538dk.a(contiki-main.o)
                                                  obj_cc2538dk/res-leds.o
leds_set                                          contiki-cc2538dk.a(leds.o)
leds_toggle                                       contiki-cc2538dk.a(leds.o)
                                                  obj_cc2538dk/res-toggle.o
                                                  borderest.co
linkaddr_cmp                                      contiki-cc2538dk.a(linkaddr.o)
                                                  contiki-cc2538dk.a(mac-sequence.o)
                                                  contiki-cc2538dk.a(contikimac.o)
                                                  contiki-cc2538dk.a(csma.o)
                                                  contiki-cc2538dk.a(packetbuf.o)
                                                  contiki-cc2538dk.a(nbr-table.o)
                                                  contiki-cc2538dk.a(sicslowpan.o)
                                                  contiki-cc2538dk.a(uip-ds6-nbr.o)
linkaddr_copy                                     contiki-cc2538dk.a(linkaddr.o)
                                                  contiki-cc2538dk.a(mac-sequence.o)
                                                  contiki-cc2538dk.a(frame802154.o)
                                                  contiki-cc2538dk.a(csma.o)
                                                  contiki-cc2538dk.a(framer-802154.o)
                                                  contiki-cc2538dk.a(packetbuf.o)
                                                  contiki-cc2538dk.a(nbr-table.o)
                                                  contiki-cc2538dk.a(sicslowpan.o)
linkaddr_node_addr                                contiki-cc2538dk.a(linkaddr.o)
                                                  contiki-cc2538dk.a(contikimac.o)
                                                  contiki-cc2538dk.a(framer-802154.o)
                                                  contiki-cc2538dk.a(contiki-main.o)
linkaddr_null                                     contiki-cc2538dk.a(linkaddr.o)
                                                  contiki-cc2538dk.a(frame802154.o)
                                                  contiki-cc2538dk.a(packetbuf.o)
                                                  contiki-cc2538dk.a(nbr-table.o)
                                                  contiki-cc2538dk.a(sicslowpan.o)
                                                  contiki-cc2538dk.a(uip-ds6-nbr.o)
linkaddr_set_node_addr                            contiki-cc2538dk.a(linkaddr.o)
list_add                                          contiki-cc2538dk.a(list.o)
                                                  contiki-cc2538dk.a(uip-icmp6.o)
                                                  contiki-cc2538dk.a(csma.o)
                                                  contiki-cc2538dk.a(nbr-table.o)
                                                  contiki-cc2538dk.a(uip-ds6-route.o)
                                                  contiki-cc2538dk.a(ctimer.o)
                                                  contiki-cc2538dk.a(rest-engine.o)
                                                  contiki-cc2538dk.a(er-coap-observe)
                                                  contiki-cc2538dk.a(er-coap-transac)
list_chop                                         contiki-cc2538dk.a(list.o)
list_copy                                         contiki-cc2538dk.a(list.o)
list_head                                         contiki-cc2538dk.a(list.o)
                                                  contiki-cc2538dk.a(uip-icmp6.o)
                                                  contiki-cc2538dk.a(csma.o)
                                                  contiki-cc2538dk.a(nbr-table.o)
                                                  contiki-cc2538dk.a(uip-ds6-route.o)
                                                  contiki-cc2538dk.a(ctimer.o)
                                                  contiki-cc2538dk.a(rest-engine.o)
                                                  contiki-cc2538dk.a(er-coap-res-wel)
                                                  contiki-cc2538dk.a(er-coap-observe)
                                                  contiki-cc2538dk.a(er-coap-transac)
list_init                                         contiki-cc2538dk.a(list.o)
                                                  contiki-cc2538dk.a(csma.o)
                                                  contiki-cc2538dk.a(uip-ds6-route.o)
                                                  contiki-cc2538dk.a(ctimer.o)
                                                  contiki-cc2538dk.a(rest-engine.o)
list_insert                                       contiki-cc2538dk.a(list.o)
list_item_next                                    contiki-cc2538dk.a(list.o)
                                                  contiki-cc2538dk.a(uip-icmp6.o)
                                                  contiki-cc2538dk.a(contikimac.o)
                                                  contiki-cc2538dk.a(csma.o)
                                                  contiki-cc2538dk.a(nbr-table.o)
                                                  contiki-cc2538dk.a(uip-ds6-route.o)
list_length                                       contiki-cc2538dk.a(list.o)
                                                  contiki-cc2538dk.a(csma.o)
                                                  contiki-cc2538dk.a(uip-ds6-route.o)
list_pop                                          contiki-cc2538dk.a(list.o)
list_push                                         contiki-cc2538dk.a(list.o)
                                                  contiki-cc2538dk.a(uip-ds6-route.o)
list_remove                                       contiki-cc2538dk.a(list.o)
                                                  contiki-cc2538dk.a(uip-icmp6.o)
                                                  contiki-cc2538dk.a(csma.o)
                                                  contiki-cc2538dk.a(nbr-table.o)
                                                  contiki-cc2538dk.a(uip-ds6-route.o)
                                                  contiki-cc2538dk.a(ctimer.o)
                                                  contiki-cc2538dk.a(er-coap-observe)
                                                  contiki-cc2538dk.a(er-coap-transac)
list_tail                                         contiki-cc2538dk.a(list.o)
                                                  contiki-cc2538dk.a(uip-ds6-route.o)
llprefix                                          contiki-cc2538dk.a(sicslowpan.o)
lpm_enter                                         contiki-cc2538dk.a(lpm.o)
                                                  contiki-cc2538dk.a(contiki-main.o)
lpm_exit                                          contiki-cc2538dk.a(lpm.o)
                                                  contiki-cc2538dk.a(gpio.o)
                                                  contiki-cc2538dk.a(rtimer-arch.o)
lpm_init                                          contiki-cc2538dk.a(lpm.o)
                                                  contiki-cc2538dk.a(contiki-main.o)
lpm_register_peripheral                           contiki-cc2538dk.a(lpm.o)
                                                  contiki-cc2538dk.a(crypto.o)
                                                  contiki-cc2538dk.a(uart.o)
lpm_set_max_pm                                    contiki-cc2538dk.a(lpm.o)
mac_call_sent_callback                            contiki-cc2538dk.a(mac.o)
                                                  contiki-cc2538dk.a(contikimac.o)
                                                  contiki-cc2538dk.a(csma.o)
mac_sequence_is_duplicate                         contiki-cc2538dk.a(mac-sequence.o)
                                                  contiki-cc2538dk.a(contikimac.o)
mac_sequence_register_seqno                       contiki-cc2538dk.a(mac-sequence.o)
                                                  contiki-cc2538dk.a(contikimac.o)
main                                              contiki-cc2538dk.a(contiki-main.o)
                                                  obj_cc2538dk/startup-gcc.o
memb_alloc                                        contiki-cc2538dk.a(memb.o)
                                                  contiki-cc2538dk.a(csma.o)
                                                  contiki-cc2538dk.a(nbr-table.o)
                                                  contiki-cc2538dk.a(queuebuf.o)
                                                  contiki-cc2538dk.a(uip-ds6-route.o)
                                                  contiki-cc2538dk.a(er-coap-observe)
                                                  contiki-cc2538dk.a(er-coap-transac)
                                                  obj_cc2538dk/httpd-simple.o
memb_free                                         contiki-cc2538dk.a(memb.o)
                                                  contiki-cc2538dk.a(csma.o)
                                                  contiki-cc2538dk.a(queuebuf.o)
                                                  contiki-cc2538dk.a(uip-ds6-route.o)
                                                  contiki-cc2538dk.a(er-coap-observe)
                                                  contiki-cc2538dk.a(er-coap-transac)
                                                  obj_cc2538dk/httpd-simple.o
memb_init                                         contiki-cc2538dk.a(memb.o)
                                                  contiki-cc2538dk.a(csma.o)
                                                  contiki-cc2538dk.a(queuebuf.o)
                                                  contiki-cc2538dk.a(uip-ds6-route.o)
                                                  obj_cc2538dk/httpd-simple.o
memb_inmemb                                       contiki-cc2538dk.a(memb.o)
                                                  contiki-cc2538dk.a(queuebuf.o)
memb_numfree                                      contiki-cc2538dk.a(memb.o)
                                                  contiki-cc2538dk.a(queuebuf.o)
memchr                                            /usr/lib/gcc/arm-none-eabi/4.8/../../../arm-none-eabi/lib/armv7-m/libc.a(lib_a-memchr-stub.o)
                                                  contiki-cc2538dk.a(er-coap.o)
memcmp                                            /usr/lib/gcc/arm-none-eabi/4.8/../../../arm-none-eabi/lib/armv7-m/libc.a(lib_a-memcmp.o)
                                                  contiki-cc2538dk.a(rpl-icmp6.o)
                                                  contiki-cc2538dk.a(linkaddr.o)
                                                  contiki-cc2538dk.a(rpl.o)
                                                  contiki-cc2538dk.a(rpl-dag.o)
                                                  contiki-cc2538dk.a(sicslowpan.o)
                                                  contiki-cc2538dk.a(uip-nd6.o)
                                                  contiki-cc2538dk.a(uip-ds6-nbr.o)
                                                  contiki-cc2538dk.a(uip6.o)
                                                  contiki-cc2538dk.a(uip-ds6-route.o)
                                                  contiki-cc2538dk.a(uip-ds6.o)
                                                  contiki-cc2538dk.a(slip.o)
                                                  contiki-cc2538dk.a(er-coap-observe)
                                                  obj_cc2538dk/slip-bridge.o
memcpy                                            /usr/lib/gcc/arm-none-eabi/4.8/../../../arm-none-eabi/lib/armv7-m/libc.a(lib_a-memcpy.o)
                                                  contiki-cc2538dk.a(rpl-icmp6.o)
                                                  contiki-cc2538dk.a(uip-udp-packet.)
                                                  contiki-cc2538dk.a(er-coap.o)
                                                  contiki-cc2538dk.a(packetbuf.o)
                                                  contiki-cc2538dk.a(rpl-dag.o)
                                                  contiki-cc2538dk.a(psock.o)
                                                  contiki-cc2538dk.a(sicslowpan.o)
                                                  contiki-cc2538dk.a(uip6.o)
                                                  contiki-cc2538dk.a(dbg-snprintf.o)
                                                  contiki-cc2538dk.a(slip.o)
                                                  contiki-cc2538dk.a(er-coap-observe)
                                                  obj_cc2538dk/res-hello.o
memmove                                           /usr/lib/gcc/arm-none-eabi/4.8/../../../arm-none-eabi/lib/armv7-m/libc.a(lib_a-memmove.o)
                                                  contiki-cc2538dk.a(uip-icmp6.o)
                                                  contiki-cc2538dk.a(er-coap.o)
                                                  contiki-cc2538dk.a(rpl-ext-header.)
                                                  contiki-cc2538dk.a(sicslowpan.o)
                                                  contiki-cc2538dk.a(uip6.o)
memset                                            /usr/lib/gcc/arm-none-eabi/4.8/../../../arm-none-eabi/lib/armv7-m/libc.a(lib_a-memset.o)
                                                  contiki-cc2538dk.a(rpl-icmp6.o)
                                                  contiki-cc2538dk.a(er-coap.o)
                                                  contiki-cc2538dk.a(frame802154.o)
                                                  contiki-cc2538dk.a(framer-802154.o)
                                                  contiki-cc2538dk.a(nbr-table.o)
                                                  contiki-cc2538dk.a(rpl-dag.o)
                                                  contiki-cc2538dk.a(sicslowpan.o)
                                                  contiki-cc2538dk.a(uip-nd6.o)
                                                  contiki-cc2538dk.a(uip6.o)
                                                  contiki-cc2538dk.a(uip-ds6-route.o)
                                                  contiki-cc2538dk.a(uip-ds6.o)
                                                  contiki-cc2538dk.a(memb.o)
                                                  contiki-cc2538dk.a(slip.o)
                                                  contiki-cc2538dk.a(udma.o)
                                                  contiki-cc2538dk.a(gpio.o)
                                                  obj_cc2538dk/slip-bridge.o
nbr_table_add_lladdr                              contiki-cc2538dk.a(nbr-table.o)
                                                  contiki-cc2538dk.a(rpl-dag.o)
                                                  contiki-cc2538dk.a(uip-ds6-nbr.o)
                                                  contiki-cc2538dk.a(uip-ds6-route.o)
nbr_table_get_from_lladdr                         contiki-cc2538dk.a(nbr-table.o)
                                                  contiki-cc2538dk.a(rpl-dag.o)
                                                  contiki-cc2538dk.a(uip-ds6-nbr.o)
                                                  contiki-cc2538dk.a(uip-ds6-route.o)
nbr_table_get_lladdr                              contiki-cc2538dk.a(nbr-table.o)
                                                  contiki-cc2538dk.a(rpl-dag.o)
                                                  contiki-cc2538dk.a(uip-ds6-nbr.o)
                                                  contiki-cc2538dk.a(uip-ds6-route.o)
nbr_table_head                                    contiki-cc2538dk.a(nbr-table.o)
                                                  contiki-cc2538dk.a(rpl-timers.o)
                                                  contiki-cc2538dk.a(rpl-dag.o)
                                                  contiki-cc2538dk.a(uip-ds6-nbr.o)
                                                  borderest.co
nbr_table_lock                                    contiki-cc2538dk.a(nbr-table.o)
                                                  contiki-cc2538dk.a(rpl-dag.o)
nbr_table_next                                    contiki-cc2538dk.a(nbr-table.o)
                                                  contiki-cc2538dk.a(rpl-timers.o)
                                                  contiki-cc2538dk.a(rpl-dag.o)
                                                  contiki-cc2538dk.a(uip-ds6-nbr.o)
                                                  borderest.co
nbr_table_register                                contiki-cc2538dk.a(nbr-table.o)
                                                  contiki-cc2538dk.a(rpl-dag.o)
                                                  contiki-cc2538dk.a(uip-ds6-nbr.o)
                                                  contiki-cc2538dk.a(uip-ds6-route.o)
nbr_table_remove                                  contiki-cc2538dk.a(nbr-table.o)
                                                  contiki-cc2538dk.a(rpl-dag.o)
                                                  contiki-cc2538dk.a(uip-ds6-nbr.o)
                                                  contiki-cc2538dk.a(uip-ds6-route.o)
nbr_table_unlock                                  contiki-cc2538dk.a(nbr-table.o)
                                                  contiki-cc2538dk.a(rpl-dag.o)
netstack_init                                     contiki-cc2538dk.a(netstack.o)
                                                  contiki-cc2538dk.a(contiki-main.o)
nmi_handler                                       obj_cc2538dk/startup-gcc.o
notify                                            contiki-cc2538dk.a(gpio.o)
nullsec_driver                                    contiki-cc2538dk.a(nullsec.o)
                                                  contiki-cc2538dk.a(framer.o)
                                                  contiki-cc2538dk.a(csma.o)
                                                  contiki-cc2538dk.a(sicslowpan.o)
nvic_init                                         contiki-cc2538dk.a(nvic.o)
                                                  contiki-cc2538dk.a(contiki-main.o)
nvic_interrupt_disable                            contiki-cc2538dk.a(nvic.o)
                                                  contiki-cc2538dk.a(crypto.o)
                                                  contiki-cc2538dk.a(rtimer-arch.o)
nvic_interrupt_en_restore                         contiki-cc2538dk.a(nvic.o)
nvic_interrupt_en_save                            contiki-cc2538dk.a(nvic.o)
nvic_interrupt_enable                             contiki-cc2538dk.a(nvic.o)
                                                  contiki-cc2538dk.a(udma.o)
                                                  contiki-cc2538dk.a(cc2538-rf.o)
                                                  contiki-cc2538dk.a(uart.o)
                                                  contiki-cc2538dk.a(rtimer-arch.o)
                                                  contiki-cc2538dk.a(button-sensor.o)
nvic_interrupt_pend                               contiki-cc2538dk.a(nvic.o)
nvic_interrupt_unpend                             contiki-cc2538dk.a(nvic.o)
                                                  contiki-cc2538dk.a(crypto.o)
                                                  contiki-cc2538dk.a(rtimer-arch.o)
packetbuf_addr                                    contiki-cc2538dk.a(packetbuf.o)
                                                  contiki-cc2538dk.a(mac-sequence.o)
                                                  contiki-cc2538dk.a(rpl-icmp6.o)
                                                  contiki-cc2538dk.a(contikimac.o)
                                                  contiki-cc2538dk.a(csma.o)
                                                  contiki-cc2538dk.a(framer-802154.o)
                                                  contiki-cc2538dk.a(rpl-ext-header.)
                                                  contiki-cc2538dk.a(sicslowpan.o)
                                                  contiki-cc2538dk.a(uip-ds6-nbr.o)
packetbuf_addrs                                   contiki-cc2538dk.a(packetbuf.o)
packetbuf_attr                                    contiki-cc2538dk.a(packetbuf.o)
                                                  contiki-cc2538dk.a(mac-sequence.o)
                                                  contiki-cc2538dk.a(contikimac.o)
                                                  contiki-cc2538dk.a(csma.o)
                                                  contiki-cc2538dk.a(framer-802154.o)
                                                  contiki-cc2538dk.a(sicslowpan.o)
packetbuf_attr_clear                              contiki-cc2538dk.a(packetbuf.o)
packetbuf_attr_copyfrom                           contiki-cc2538dk.a(packetbuf.o)
                                                  contiki-cc2538dk.a(queuebuf.o)
packetbuf_attr_copyto                             contiki-cc2538dk.a(packetbuf.o)
                                                  contiki-cc2538dk.a(queuebuf.o)
packetbuf_attrs                                   contiki-cc2538dk.a(packetbuf.o)
packetbuf_clear                                   contiki-cc2538dk.a(packetbuf.o)
                                                  contiki-cc2538dk.a(sicslowpan.o)
                                                  contiki-cc2538dk.a(cc2538-rf.o)
packetbuf_clear_hdr                               contiki-cc2538dk.a(packetbuf.o)
packetbuf_compact                                 contiki-cc2538dk.a(packetbuf.o)
                                                  contiki-cc2538dk.a(framer.o)
packetbuf_copyfrom                                contiki-cc2538dk.a(packetbuf.o)
                                                  contiki-cc2538dk.a(queuebuf.o)
packetbuf_copyto                                  contiki-cc2538dk.a(packetbuf.o)
                                                  contiki-cc2538dk.a(queuebuf.o)
packetbuf_copyto_hdr                              contiki-cc2538dk.a(packetbuf.o)
packetbuf_datalen                                 contiki-cc2538dk.a(packetbuf.o)
                                                  contiki-cc2538dk.a(contikimac.o)
                                                  contiki-cc2538dk.a(framer-802154.o)
                                                  contiki-cc2538dk.a(sicslowpan.o)
packetbuf_dataptr                                 contiki-cc2538dk.a(packetbuf.o)
                                                  contiki-cc2538dk.a(framer-802154.o)
                                                  contiki-cc2538dk.a(sicslowpan.o)
                                                  contiki-cc2538dk.a(cc2538-rf.o)
packetbuf_hdr_remove                              contiki-cc2538dk.a(packetbuf.o)
packetbuf_hdralloc                                contiki-cc2538dk.a(packetbuf.o)
                                                  contiki-cc2538dk.a(framer-802154.o)
packetbuf_hdrlen                                  contiki-cc2538dk.a(packetbuf.o)
packetbuf_hdrptr                                  contiki-cc2538dk.a(packetbuf.o)
                                                  contiki-cc2538dk.a(contikimac.o)
                                                  contiki-cc2538dk.a(framer-802154.o)
packetbuf_hdrreduce                               contiki-cc2538dk.a(packetbuf.o)
                                                  contiki-cc2538dk.a(framer-802154.o)
packetbuf_holds_broadcast                         contiki-cc2538dk.a(packetbuf.o)
                                                  contiki-cc2538dk.a(contikimac.o)
                                                  contiki-cc2538dk.a(framer-802154.o)
packetbuf_set_addr                                contiki-cc2538dk.a(packetbuf.o)
                                                  contiki-cc2538dk.a(contikimac.o)
                                                  contiki-cc2538dk.a(framer-802154.o)
                                                  contiki-cc2538dk.a(sicslowpan.o)
packetbuf_set_attr                                contiki-cc2538dk.a(packetbuf.o)
                                                  contiki-cc2538dk.a(nullsec.o)
                                                  contiki-cc2538dk.a(contikimac.o)
                                                  contiki-cc2538dk.a(csma.o)
                                                  contiki-cc2538dk.a(framer-802154.o)
                                                  contiki-cc2538dk.a(sicslowpan.o)
                                                  contiki-cc2538dk.a(cc2538-rf.o)
packetbuf_set_datalen                             contiki-cc2538dk.a(packetbuf.o)
                                                  contiki-cc2538dk.a(sicslowpan.o)
                                                  contiki-cc2538dk.a(cc2538-rf.o)
packetbuf_totlen                                  contiki-cc2538dk.a(packetbuf.o)
                                                  contiki-cc2538dk.a(contikimac.o)
printf                                            contiki-cc2538dk.a(dbg-printf.o)
                                                  contiki-cc2538dk.a(rpl-dag.o)
                                                  contiki-cc2538dk.a(uip-debug.o)
                                                  contiki-cc2538dk.a(contiki-main.o)
                                                  obj_cc2538dk/res-leds.o
                                                  obj_cc2538dk/slip-bridge.o
process_alloc_event                               contiki-cc2538dk.a(process.o)
                                                  contiki-cc2538dk.a(tcpip.o)
                                                  contiki-cc2538dk.a(serial-line.o)
                                                  contiki-cc2538dk.a(sensors.o)
process_current                                   contiki-cc2538dk.a(process.o)
                                                  contiki-cc2538dk.a(tcpip.o)
                                                  contiki-cc2538dk.a(serial-line.o)
                                                  contiki-cc2538dk.a(ctimer.o)
                                                  contiki-cc2538dk.a(etimer.o)
                                                  contiki-cc2538dk.a(rest-engine.o)
                                                  contiki-cc2538dk.a(er-coap-transac)
                                                  contiki-cc2538dk.a(er-coap-engine.)
                                                  borderest.co
process_exit                                      contiki-cc2538dk.a(process.o)
                                                  contiki-cc2538dk.a(autostart.o)
process_init                                      contiki-cc2538dk.a(process.o)
                                                  contiki-cc2538dk.a(contiki-main.o)
process_is_running                                contiki-cc2538dk.a(process.o)
process_list                                      contiki-cc2538dk.a(process.o)
process_nevents                                   contiki-cc2538dk.a(process.o)
                                                  contiki-cc2538dk.a(lpm.o)
process_poll                                      contiki-cc2538dk.a(process.o)
                                                  contiki-cc2538dk.a(serial-line.o)
                                                  contiki-cc2538dk.a(etimer.o)
                                                  contiki-cc2538dk.a(slip.o)
                                                  contiki-cc2538dk.a(cc2538-rf.o)
                                                  contiki-cc2538dk.a(crypto.o)
                                                  contiki-cc2538dk.a(sensors.o)
                                                  contiki-cc2538dk.a(er-coap-engine.)
process_post                                      contiki-cc2538dk.a(process.o)
                                                  contiki-cc2538dk.a(tcpip.o)
                                                  contiki-cc2538dk.a(serial-line.o)
                                                  contiki-cc2538dk.a(etimer.o)
                                                  contiki-cc2538dk.a(sensors.o)
                                                  contiki-cc2538dk.a(rest-engine.o)
                                                  borderest.co
process_post_synch                                contiki-cc2538dk.a(process.o)
                                                  contiki-cc2538dk.a(tcpip.o)
process_run                                       contiki-cc2538dk.a(process.o)
                                                  contiki-cc2538dk.a(contiki-main.o)
process_start                                     contiki-cc2538dk.a(process.o)
                                                  contiki-cc2538dk.a(serial-line.o)
                                                  contiki-cc2538dk.a(ctimer.o)
                                                  contiki-cc2538dk.a(autostart.o)
                                                  contiki-cc2538dk.a(cc2538-rf.o)
                                                  contiki-cc2538dk.a(contiki-main.o)
                                                  contiki-cc2538dk.a(rest-engine.o)
                                                  contiki-cc2538dk.a(er-coap-engine.)
                                                  obj_cc2538dk/slip-bridge.o
psock_datalen                                     contiki-cc2538dk.a(psock.o)
                                                  obj_cc2538dk/httpd-simple.o
psock_generator_send                              contiki-cc2538dk.a(psock.o)
psock_init                                        contiki-cc2538dk.a(psock.o)
                                                  obj_cc2538dk/httpd-simple.o
psock_newdata                                     contiki-cc2538dk.a(psock.o)
psock_readbuf_len                                 contiki-cc2538dk.a(psock.o)
psock_readto                                      contiki-cc2538dk.a(psock.o)
                                                  obj_cc2538dk/httpd-simple.o
psock_send                                        contiki-cc2538dk.a(psock.o)
                                                  obj_cc2538dk/httpd-simple.o
                                                  borderest.co
putchar                                           contiki-cc2538dk.a(dbg.o)
                                                  contiki-cc2538dk.a(uip-debug.o)
                                                  obj_cc2538dk/slip-bridge.o
                                                  borderest.co
puts                                              contiki-cc2538dk.a(dbg.o)
                                                  contiki-cc2538dk.a(rpl-dag.o)
                                                  contiki-cc2538dk.a(contiki-main.o)
                                                  borderest.co
queuebuf_addr                                     contiki-cc2538dk.a(queuebuf.o)
queuebuf_attr                                     contiki-cc2538dk.a(queuebuf.o)
                                                  contiki-cc2538dk.a(csma.o)
queuebuf_datalen                                  contiki-cc2538dk.a(queuebuf.o)
queuebuf_dataptr                                  contiki-cc2538dk.a(queuebuf.o)
queuebuf_debug_print                              contiki-cc2538dk.a(queuebuf.o)
queuebuf_free                                     contiki-cc2538dk.a(queuebuf.o)
                                                  contiki-cc2538dk.a(csma.o)
                                                  contiki-cc2538dk.a(sicslowpan.o)
queuebuf_init                                     contiki-cc2538dk.a(queuebuf.o)
                                                  contiki-cc2538dk.a(contiki-main.o)
queuebuf_new_from_packetbuf                       contiki-cc2538dk.a(queuebuf.o)
                                                  contiki-cc2538dk.a(csma.o)
                                                  contiki-cc2538dk.a(sicslowpan.o)
queuebuf_numfree                                  contiki-cc2538dk.a(queuebuf.o)
                                                  contiki-cc2538dk.a(sicslowpan.o)
queuebuf_to_packetbuf                             contiki-cc2538dk.a(queuebuf.o)
                                                  contiki-cc2538dk.a(contikimac.o)
                                                  contiki-cc2538dk.a(sicslowpan.o)
queuebuf_update_attr_from_packetbuf               contiki-cc2538dk.a(queuebuf.o)
                                                  contiki-cc2538dk.a(csma.o)
queuebuf_update_from_packetbuf                    contiki-cc2538dk.a(queuebuf.o)
                                                  contiki-cc2538dk.a(contikimac.o)
random_init                                       contiki-cc2538dk.a(random.o)
                                                  contiki-cc2538dk.a(contiki-main.o)
random_rand                                       contiki-cc2538dk.a(random.o)
                                                  contiki-cc2538dk.a(er-coap.o)
                                                  contiki-cc2538dk.a(csma.o)
                                                  contiki-cc2538dk.a(framer-802154.o)
                                                  contiki-cc2538dk.a(rpl-timers.o)
                                                  contiki-cc2538dk.a(uip-ds6.o)
                                                  contiki-cc2538dk.a(er-coap-transac)
remove_ext_hdr                                    contiki-cc2538dk.a(uip6.o)
                                                  contiki-cc2538dk.a(tcpip.o)
request_prefix                                    borderest.co
res_hello                                         obj_cc2538dk/res-hello.o
                                                  borderest.co
res_leds                                          obj_cc2538dk/res-leds.o
                                                  borderest.co
res_toggle                                        obj_cc2538dk/res-toggle.o
                                                  borderest.co
res_well_known_core                               contiki-cc2538dk.a(er-coap-res-wel)
                                                  contiki-cc2538dk.a(er-coap-engine.)
reset_handler                                     obj_cc2538dk/startup-gcc.o
rest_activate_resource                            contiki-cc2538dk.a(rest-engine.o)
                                                  contiki-cc2538dk.a(er-coap-engine.)
                                                  borderest.co
rest_engine_process                               contiki-cc2538dk.a(rest-engine.o)
rest_get_resources                                contiki-cc2538dk.a(rest-engine.o)
                                                  contiki-cc2538dk.a(er-coap-res-wel)
rest_init_engine                                  contiki-cc2538dk.a(rest-engine.o)
                                                  borderest.co
rest_invoke_restful_service                       contiki-cc2538dk.a(rest-engine.o)
rime_sniffer_add                                  contiki-cc2538dk.a(sicslowpan.o)
rime_sniffer_remove                               contiki-cc2538dk.a(sicslowpan.o)
ringbuf_elements                                  contiki-cc2538dk.a(ringbuf.o)
ringbuf_get                                       contiki-cc2538dk.a(ringbuf.o)
                                                  contiki-cc2538dk.a(serial-line.o)
ringbuf_init                                      contiki-cc2538dk.a(ringbuf.o)
                                                  contiki-cc2538dk.a(serial-line.o)
ringbuf_put                                       contiki-cc2538dk.a(ringbuf.o)
                                                  contiki-cc2538dk.a(serial-line.o)
ringbuf_size                                      contiki-cc2538dk.a(ringbuf.o)
rpl_add_dag                                       contiki-cc2538dk.a(rpl-dag.o)
rpl_add_parent                                    contiki-cc2538dk.a(rpl-dag.o)
rpl_add_route                                     contiki-cc2538dk.a(rpl.o)
                                                  contiki-cc2538dk.a(rpl-icmp6.o)
rpl_alloc_dag                                     contiki-cc2538dk.a(rpl-dag.o)
rpl_alloc_instance                                contiki-cc2538dk.a(rpl-dag.o)
rpl_cancel_dao                                    contiki-cc2538dk.a(rpl-timers.o)
                                                  contiki-cc2538dk.a(rpl.o)
rpl_dag_init                                      contiki-cc2538dk.a(rpl-dag.o)
                                                  contiki-cc2538dk.a(rpl.o)
rpl_find_of                                       contiki-cc2538dk.a(rpl-dag.o)
rpl_find_parent                                   contiki-cc2538dk.a(rpl-dag.o)
                                                  contiki-cc2538dk.a(rpl-icmp6.o)
                                                  contiki-cc2538dk.a(rpl-ext-header.)
rpl_find_parent_any_dag                           contiki-cc2538dk.a(rpl-dag.o)
                                                  contiki-cc2538dk.a(rpl.o)
rpl_free_dag                                      contiki-cc2538dk.a(rpl-dag.o)
rpl_free_instance                                 contiki-cc2538dk.a(rpl-dag.o)
rpl_get_any_dag                                   contiki-cc2538dk.a(rpl-dag.o)
                                                  contiki-cc2538dk.a(rpl-timers.o)
rpl_get_default_instance                          contiki-cc2538dk.a(rpl-dag.o)
rpl_get_instance                                  contiki-cc2538dk.a(rpl-dag.o)
                                                  contiki-cc2538dk.a(rpl-icmp6.o)
                                                  contiki-cc2538dk.a(rpl-ext-header.)
rpl_get_mode                                      contiki-cc2538dk.a(rpl.o)
                                                  contiki-cc2538dk.a(rpl-icmp6.o)
                                                  contiki-cc2538dk.a(rpl-timers.o)
rpl_get_nbr                                       contiki-cc2538dk.a(rpl-dag.o)
                                                  contiki-cc2538dk.a(rpl-mrhof.o)
rpl_get_parent                                    contiki-cc2538dk.a(rpl-dag.o)
                                                  contiki-cc2538dk.a(rpl-ext-header.)
rpl_get_parent_ipaddr                             contiki-cc2538dk.a(rpl-dag.o)
                                                  contiki-cc2538dk.a(rpl-icmp6.o)
                                                  contiki-cc2538dk.a(rpl-timers.o)
rpl_get_parent_link_metric                        contiki-cc2538dk.a(rpl-dag.o)
rpl_get_parent_rank                               contiki-cc2538dk.a(rpl-dag.o)
rpl_icmp6_register_handlers                       contiki-cc2538dk.a(rpl-icmp6.o)
                                                  contiki-cc2538dk.a(rpl.o)
rpl_init                                          contiki-cc2538dk.a(rpl.o)
                                                  contiki-cc2538dk.a(tcpip.o)
rpl_insert_header                                 contiki-cc2538dk.a(rpl-ext-header.)
                                                  contiki-cc2538dk.a(uip6.o)
rpl_interface                                     obj_cc2538dk/slip-bridge.o
                                                  contiki-cc2538dk.a(tcpip.o)
rpl_invert_header                                 contiki-cc2538dk.a(rpl-ext-header.)
                                                  contiki-cc2538dk.a(uip-icmp6.o)
rpl_ipv6_neighbor_callback                        contiki-cc2538dk.a(rpl.o)
                                                  contiki-cc2538dk.a(uip-ds6-nbr.o)
rpl_join_instance                                 contiki-cc2538dk.a(rpl-dag.o)
rpl_link_neighbor_callback                        contiki-cc2538dk.a(rpl.o)
                                                  contiki-cc2538dk.a(uip-ds6-nbr.o)
rpl_local_repair                                  contiki-cc2538dk.a(rpl-dag.o)
rpl_lock_parent                                   contiki-cc2538dk.a(rpl-dag.o)
                                                  contiki-cc2538dk.a(rpl-icmp6.o)
rpl_move_parent                                   contiki-cc2538dk.a(rpl-dag.o)
rpl_mrhof                                         contiki-cc2538dk.a(rpl-mrhof.o)
                                                  contiki-cc2538dk.a(rpl-icmp6.o)
                                                  contiki-cc2538dk.a(rpl.o)
                                                  contiki-cc2538dk.a(rpl-dag.o)
rpl_nullify_parent                                contiki-cc2538dk.a(rpl-dag.o)
rpl_parents                                       contiki-cc2538dk.a(rpl-dag.o)
                                                  contiki-cc2538dk.a(rpl-timers.o)
rpl_print_neighbor_list                           contiki-cc2538dk.a(rpl-dag.o)
rpl_process_dio                                   contiki-cc2538dk.a(rpl-dag.o)
                                                  contiki-cc2538dk.a(rpl-icmp6.o)
rpl_process_parent_event                          contiki-cc2538dk.a(rpl-dag.o)
rpl_purge_routes                                  contiki-cc2538dk.a(rpl.o)
                                                  contiki-cc2538dk.a(rpl-timers.o)
rpl_recalculate_ranks                             contiki-cc2538dk.a(rpl-dag.o)
                                                  contiki-cc2538dk.a(rpl-timers.o)
rpl_remove_header                                 contiki-cc2538dk.a(rpl-ext-header.)
rpl_remove_parent                                 contiki-cc2538dk.a(rpl-dag.o)
rpl_remove_routes                                 contiki-cc2538dk.a(rpl.o)
                                                  contiki-cc2538dk.a(rpl-dag.o)
rpl_remove_routes_by_nexthop                      contiki-cc2538dk.a(rpl.o)
                                                  contiki-cc2538dk.a(rpl-dag.o)
rpl_repair_root                                   contiki-cc2538dk.a(rpl-dag.o)
                                                  contiki-cc2538dk.a(tcpip.o)
                                                  borderest.co
rpl_reset_dio_timer                               contiki-cc2538dk.a(rpl-timers.o)
                                                  contiki-cc2538dk.a(rpl-icmp6.o)
                                                  contiki-cc2538dk.a(rpl-ext-header.)
                                                  contiki-cc2538dk.a(rpl-dag.o)
rpl_reset_periodic_timer                          contiki-cc2538dk.a(rpl-timers.o)
                                                  contiki-cc2538dk.a(rpl.o)
rpl_schedule_dao                                  contiki-cc2538dk.a(rpl-timers.o)
                                                  contiki-cc2538dk.a(rpl-dag.o)
rpl_schedule_dao_immediately                      contiki-cc2538dk.a(rpl-timers.o)
                                                  contiki-cc2538dk.a(rpl.o)
rpl_schedule_probing                              contiki-cc2538dk.a(rpl-timers.o)
                                                  contiki-cc2538dk.a(rpl-dag.o)
rpl_select_dag                                    contiki-cc2538dk.a(rpl-dag.o)
rpl_select_parent                                 contiki-cc2538dk.a(rpl-dag.o)
rpl_set_default_instance                          contiki-cc2538dk.a(rpl-dag.o)
rpl_set_default_route                             contiki-cc2538dk.a(rpl-dag.o)
rpl_set_mode                                      contiki-cc2538dk.a(rpl.o)
rpl_set_prefix                                    contiki-cc2538dk.a(rpl-dag.o)
                                                  borderest.co
rpl_set_root                                      contiki-cc2538dk.a(rpl-dag.o)
                                                  borderest.co
rpl_update_header_empty                           contiki-cc2538dk.a(rpl-ext-header.)
                                                  contiki-cc2538dk.a(uip6.o)
rpl_update_header_final                           contiki-cc2538dk.a(rpl-ext-header.)
                                                  contiki-cc2538dk.a(tcpip.o)
rpl_verify_header                                 contiki-cc2538dk.a(rpl-ext-header.)
                                                  contiki-cc2538dk.a(uip6.o)
rtimer_arch_init                                  contiki-cc2538dk.a(rtimer-arch.o)
                                                  contiki-cc2538dk.a(rtimer.o)
rtimer_arch_next_trigger                          contiki-cc2538dk.a(rtimer-arch.o)
                                                  contiki-cc2538dk.a(lpm.o)
rtimer_arch_now                                   contiki-cc2538dk.a(rtimer-arch.o)
                                                  contiki-cc2538dk.a(contikimac.o)
                                                  contiki-cc2538dk.a(lpm.o)
                                                  contiki-cc2538dk.a(cc2538-rf.o)
                                                  contiki-cc2538dk.a(clock.o)
rtimer_arch_schedule                              contiki-cc2538dk.a(rtimer-arch.o)
                                                  contiki-cc2538dk.a(rtimer.o)
rtimer_init                                       contiki-cc2538dk.a(rtimer.o)
                                                  contiki-cc2538dk.a(contiki-main.o)
rtimer_isr                                        contiki-cc2538dk.a(rtimer-arch.o)
                                                  obj_cc2538dk/startup-gcc.o
rtimer_run_next                                   contiki-cc2538dk.a(rtimer.o)
                                                  contiki-cc2538dk.a(rtimer-arch.o)
rtimer_set                                        contiki-cc2538dk.a(rtimer.o)
                                                  contiki-cc2538dk.a(contikimac.o)
sensors                                           contiki-cc2538dk.a(smartrf-sensors)
                                                  contiki-cc2538dk.a(sensors.o)
sensors_changed                                   contiki-cc2538dk.a(sensors.o)
                                                  contiki-cc2538dk.a(button-sensor.o)
sensors_event                                     contiki-cc2538dk.a(sensors.o)
                                                  borderest.co
sensors_find                                      contiki-cc2538dk.a(sensors.o)
sensors_first                                     contiki-cc2538dk.a(sensors.o)
sensors_flags                                     contiki-cc2538dk.a(smartrf-sensors)
                                                  contiki-cc2538dk.a(sensors.o)
sensors_next                                      contiki-cc2538dk.a(sensors.o)
sensors_process                                   contiki-cc2538dk.a(sensors.o)
                                                  contiki-cc2538dk.a(contiki-main.o)
serial_line_event_message                         contiki-cc2538dk.a(serial-line.o)
serial_line_init                                  contiki-cc2538dk.a(serial-line.o)
                                                  contiki-cc2538dk.a(contiki-main.o)
serial_line_input_byte                            contiki-cc2538dk.a(serial-line.o)
                                                  contiki-cc2538dk.a(contiki-main.o)
serial_line_process                               contiki-cc2538dk.a(serial-line.o)
set_prefix_64                                     borderest.co
                                                  obj_cc2538dk/slip-bridge.o
sicslowpan_driver                                 contiki-cc2538dk.a(sicslowpan.o)
                                                  contiki-cc2538dk.a(nullsec.o)
                                                  contiki-cc2538dk.a(netstack.o)
                                                  contiki-cc2538dk.a(contiki-main.o)
sicslowpan_get_last_rssi                          contiki-cc2538dk.a(sicslowpan.o)
sicslowpan_init                                   contiki-cc2538dk.a(sicslowpan.o)
slip_active                                       contiki-cc2538dk.a(slip.o)
slip_arch_init                                    contiki-cc2538dk.a(slip-arch.o)
                                                  obj_cc2538dk/slip-bridge.o
slip_arch_writeb                                  contiki-cc2538dk.a(slip-arch.o)
                                                  contiki-cc2538dk.a(slip.o)
slip_input_byte                                   contiki-cc2538dk.a(slip.o)
                                                  contiki-cc2538dk.a(slip-arch.o)
slip_process                                      contiki-cc2538dk.a(slip.o)
                                                  obj_cc2538dk/slip-bridge.o
slip_send                                         contiki-cc2538dk.a(slip.o)
                                                  obj_cc2538dk/slip-bridge.o
                                                  borderest.co
slip_set_input_callback                           contiki-cc2538dk.a(slip.o)
                                                  obj_cc2538dk/slip-bridge.o
slip_write                                        contiki-cc2538dk.a(slip.o)
snprintf                                          contiki-cc2538dk.a(dbg-snprintf.o)
                                                  contiki-cc2538dk.a(er-coap-res-wel)
                                                  borderest.co
stimer_elapsed                                    contiki-cc2538dk.a(stimer.o)
stimer_expired                                    contiki-cc2538dk.a(stimer.o)
                                                  contiki-cc2538dk.a(uip-ds6-nbr.o)
                                                  contiki-cc2538dk.a(uip-ds6-route.o)
                                                  contiki-cc2538dk.a(uip-ds6.o)
stimer_remaining                                  contiki-cc2538dk.a(stimer.o)
                                                  contiki-cc2538dk.a(uip-ds6-nbr.o)
stimer_reset                                      contiki-cc2538dk.a(stimer.o)
stimer_restart                                    contiki-cc2538dk.a(stimer.o)
stimer_set                                        contiki-cc2538dk.a(stimer.o)
                                                  contiki-cc2538dk.a(rpl-icmp6.o)
                                                  contiki-cc2538dk.a(tcpip.o)
                                                  contiki-cc2538dk.a(uip-nd6.o)
                                                  contiki-cc2538dk.a(uip-ds6-nbr.o)
                                                  contiki-cc2538dk.a(uip-ds6-route.o)
                                                  contiki-cc2538dk.a(uip-ds6.o)
strchr                                            /usr/lib/gcc/arm-none-eabi/4.8/../../../arm-none-eabi/lib/armv7-m/libc.a(lib_a-strchr.o)
                                                  contiki-cc2538dk.a(er-coap.o)
strcpy                                            /usr/lib/gcc/arm-none-eabi/4.8/../../../arm-none-eabi/lib/armv7-m/libc.a(lib_a-strcpy.o)
                                                  borderest.co
strlen                                            /usr/lib/gcc/arm-none-eabi/4.8/../../../arm-none-eabi/lib/armv7-m/libc.a(lib_a-strlen.o)
                                                  contiki-cc2538dk.a(er-coap.o)
                                                  contiki-cc2538dk.a(sensors.o)
                                                  contiki-cc2538dk.a(rest-engine.o)
                                                  contiki-cc2538dk.a(er-coap-res-wel)
                                                  contiki-cc2538dk.a(er-coap-observe)
                                                  contiki-cc2538dk.a(er-coap-engine.)
                                                  obj_cc2538dk/httpd-simple.o
                                                  borderest.co
strncmp                                           /usr/lib/gcc/arm-none-eabi/4.8/../../../arm-none-eabi/lib/armv7-m/libc.a(lib_a-strncmp.o)
                                                  contiki-cc2538dk.a(er-coap.o)
                                                  contiki-cc2538dk.a(sensors.o)
                                                  contiki-cc2538dk.a(rest-engine.o)
                                                  obj_cc2538dk/httpd-simple.o
                                                  obj_cc2538dk/res-leds.o
strncpy                                           /usr/lib/gcc/arm-none-eabi/4.8/../../../arm-none-eabi/lib/armv7-m/libc.a(lib_a-strncpy.o)
                                                  obj_cc2538dk/httpd-simple.o
strtol                                            /usr/lib/gcc/arm-none-eabi/4.8/../../../arm-none-eabi/lib/armv7-m/libc.a(lib_a-strtol.o)
                                                  /usr/lib/gcc/arm-none-eabi/4.8/../../../arm-none-eabi/lib/armv7-m/libc.a(lib_a-atoi.o)
sys_ctrl_get_io_clock                             contiki-cc2538dk.a(sys-ctrl.o)
sys_ctrl_get_sys_clock                            contiki-cc2538dk.a(sys-ctrl.o)
sys_ctrl_init                                     contiki-cc2538dk.a(sys-ctrl.o)
                                                  contiki-cc2538dk.a(contiki-main.o)
sys_ctrl_reset                                    contiki-cc2538dk.a(sys-ctrl.o)
tcp_attach                                        contiki-cc2538dk.a(tcpip.o)
                                                  obj_cc2538dk/httpd-simple.o
tcp_connect                                       contiki-cc2538dk.a(tcpip.o)
tcp_listen                                        contiki-cc2538dk.a(tcpip.o)
                                                  obj_cc2538dk/httpd-simple.o
tcp_unlisten                                      contiki-cc2538dk.a(tcpip.o)
tcpip_event                                       contiki-cc2538dk.a(tcpip.o)
                                                  contiki-cc2538dk.a(er-coap-engine.)
                                                  borderest.co
tcpip_icmp6_call                                  contiki-cc2538dk.a(tcpip.o)
                                                  contiki-cc2538dk.a(uip6.o)
tcpip_icmp6_event                                 contiki-cc2538dk.a(tcpip.o)
tcpip_input                                       contiki-cc2538dk.a(tcpip.o)
                                                  contiki-cc2538dk.a(sicslowpan.o)
                                                  contiki-cc2538dk.a(slip.o)
tcpip_ipv6_output                                 contiki-cc2538dk.a(tcpip.o)
                                                  contiki-cc2538dk.a(uip-udp-packet.)
                                                  contiki-cc2538dk.a(uip-icmp6.o)
tcpip_output                                      contiki-cc2538dk.a(tcpip.o)
tcpip_poll_tcp                                    contiki-cc2538dk.a(tcpip.o)
tcpip_poll_udp                                    contiki-cc2538dk.a(tcpip.o)
tcpip_process                                     contiki-cc2538dk.a(tcpip.o)
                                                  contiki-cc2538dk.a(contiki-main.o)
tcpip_set_outputfunc                              contiki-cc2538dk.a(tcpip.o)
                                                  contiki-cc2538dk.a(sicslowpan.o)
tcpip_uipcall                                     contiki-cc2538dk.a(tcpip.o)
                                                  contiki-cc2538dk.a(uip6.o)
timer_expired                                     contiki-cc2538dk.a(timer.o)
                                                  contiki-cc2538dk.a(sicslowpan.o)
                                                  contiki-cc2538dk.a(etimer.o)
                                                  contiki-cc2538dk.a(button-sensor.o)
                                                  obj_cc2538dk/httpd-simple.o
timer_remaining                                   contiki-cc2538dk.a(timer.o)
timer_reset                                       contiki-cc2538dk.a(timer.o)
                                                  contiki-cc2538dk.a(etimer.o)
timer_restart                                     contiki-cc2538dk.a(timer.o)
                                                  contiki-cc2538dk.a(etimer.o)
                                                  obj_cc2538dk/httpd-simple.o
timer_set                                         contiki-cc2538dk.a(timer.o)
                                                  contiki-cc2538dk.a(sicslowpan.o)
                                                  contiki-cc2538dk.a(etimer.o)
                                                  contiki-cc2538dk.a(button-sensor.o)
                                                  obj_cc2538dk/httpd-simple.o
uart0_isr                                         contiki-cc2538dk.a(uart.o)
                                                  obj_cc2538dk/startup-gcc.o
uart1_isr                                         contiki-cc2538dk.a(uart.o)
                                                  obj_cc2538dk/startup-gcc.o
uart_init                                         contiki-cc2538dk.a(uart.o)
                                                  contiki-cc2538dk.a(contiki-main.o)
uart_set_input                                    contiki-cc2538dk.a(uart.o)
                                                  contiki-cc2538dk.a(slip-arch.o)
                                                  contiki-cc2538dk.a(contiki-main.o)
uart_write_byte                                   contiki-cc2538dk.a(uart.o)
                                                  contiki-cc2538dk.a(slip-arch.o)
                                                  contiki-cc2538dk.a(dbg.o)
udma_channel_disable                              contiki-cc2538dk.a(udma.o)
udma_channel_enable                               contiki-cc2538dk.a(udma.o)
                                                  contiki-cc2538dk.a(cc2538-rf.o)
udma_channel_get_mode                             contiki-cc2538dk.a(udma.o)
                                                  contiki-cc2538dk.a(cc2538-rf.o)
udma_channel_mask_clr                             contiki-cc2538dk.a(udma.o)
udma_channel_mask_set                             contiki-cc2538dk.a(udma.o)
                                                  contiki-cc2538dk.a(cc2538-rf.o)
udma_channel_prio_set_default                     contiki-cc2538dk.a(udma.o)
udma_channel_prio_set_high                        contiki-cc2538dk.a(udma.o)
udma_channel_sw_request                           contiki-cc2538dk.a(udma.o)
                                                  contiki-cc2538dk.a(cc2538-rf.o)
udma_channel_use_alternate                        contiki-cc2538dk.a(udma.o)
udma_channel_use_burst                            contiki-cc2538dk.a(udma.o)
udma_channel_use_primary                          contiki-cc2538dk.a(udma.o)
udma_channel_use_single                           contiki-cc2538dk.a(udma.o)
udma_err_isr                                      contiki-cc2538dk.a(udma.o)
                                                  obj_cc2538dk/startup-gcc.o
udma_init                                         contiki-cc2538dk.a(udma.o)
                                                  contiki-cc2538dk.a(contiki-main.o)
udma_isr                                          contiki-cc2538dk.a(udma.o)
                                                  obj_cc2538dk/startup-gcc.o
udma_set_channel_assignment                       contiki-cc2538dk.a(udma.o)
udma_set_channel_control_word                     contiki-cc2538dk.a(udma.o)
                                                  contiki-cc2538dk.a(cc2538-rf.o)
udma_set_channel_dst                              contiki-cc2538dk.a(udma.o)
                                                  contiki-cc2538dk.a(cc2538-rf.o)
udma_set_channel_src                              contiki-cc2538dk.a(udma.o)
                                                  contiki-cc2538dk.a(cc2538-rf.o)
udp_attach                                        contiki-cc2538dk.a(tcpip.o)
udp_broadcast_new                                 contiki-cc2538dk.a(tcpip.o)
udp_new                                           contiki-cc2538dk.a(tcpip.o)
                                                  contiki-cc2538dk.a(er-coap.o)
uip_acc32                                         contiki-cc2538dk.a(uip6.o)
uip_add32                                         contiki-cc2538dk.a(uip6.o)
uip_aligned_buf                                   contiki-cc2538dk.a(uip6.o)
                                                  contiki-cc2538dk.a(rpl-icmp6.o)
                                                  contiki-cc2538dk.a(uip-udp-packet.)
                                                  contiki-cc2538dk.a(uip-icmp6.o)
                                                  contiki-cc2538dk.a(rpl-ext-header.)
                                                  contiki-cc2538dk.a(tcpip.o)
                                                  contiki-cc2538dk.a(sicslowpan.o)
                                                  contiki-cc2538dk.a(uip-nd6.o)
                                                  contiki-cc2538dk.a(slip.o)
                                                  contiki-cc2538dk.a(er-coap-observe)
                                                  contiki-cc2538dk.a(er-coap-engine.)
                                                  obj_cc2538dk/slip-bridge.o
                                                  borderest.co
uip_appdata                                       contiki-cc2538dk.a(uip6.o)
                                                  contiki-cc2538dk.a(psock.o)
                                                  contiki-cc2538dk.a(slip.o)
                                                  contiki-cc2538dk.a(er-coap-engine.)
uip_chksum                                        contiki-cc2538dk.a(uip6.o)
uip_conn                                          contiki-cc2538dk.a(uip6.o)
                                                  contiki-cc2538dk.a(tcpip.o)
                                                  contiki-cc2538dk.a(psock.o)
                                                  obj_cc2538dk/httpd-simple.o
uip_connect                                       contiki-cc2538dk.a(uip6.o)
                                                  contiki-cc2538dk.a(tcpip.o)
uip_conns                                         contiki-cc2538dk.a(uip6.o)
                                                  contiki-cc2538dk.a(tcpip.o)
uip_debug_ipaddr_print                            contiki-cc2538dk.a(uip-debug.o)
                                                  contiki-cc2538dk.a(uip-ds6-route.o)
                                                  obj_cc2538dk/slip-bridge.o
                                                  borderest.co
uip_debug_lladdr_print                            contiki-cc2538dk.a(uip-debug.o)
uip_ds6_aaddr_add                                 contiki-cc2538dk.a(uip-ds6.o)
uip_ds6_aaddr_lookup                              contiki-cc2538dk.a(uip-ds6.o)
uip_ds6_aaddr_rm                                  contiki-cc2538dk.a(uip-ds6.o)
uip_ds6_addr_add                                  contiki-cc2538dk.a(uip-ds6.o)
                                                  contiki-cc2538dk.a(rpl-dag.o)
                                                  borderest.co
uip_ds6_addr_lookup                               contiki-cc2538dk.a(uip-ds6.o)
                                                  contiki-cc2538dk.a(rpl-dag.o)
                                                  contiki-cc2538dk.a(tcpip.o)
                                                  contiki-cc2538dk.a(uip-nd6.o)
                                                  contiki-cc2538dk.a(uip6.o)
uip_ds6_addr_rm                                   contiki-cc2538dk.a(uip-ds6.o)
                                                  contiki-cc2538dk.a(rpl-dag.o)
uip_ds6_addr_size                                 contiki-cc2538dk.a(uip-ds6.o)
uip_ds6_compute_reachable_time                    contiki-cc2538dk.a(uip-ds6.o)
uip_ds6_defrt_add                                 contiki-cc2538dk.a(uip-ds6-route.o)
                                                  contiki-cc2538dk.a(rpl-dag.o)
uip_ds6_defrt_choose                              contiki-cc2538dk.a(uip-ds6-route.o)
                                                  contiki-cc2538dk.a(tcpip.o)
uip_ds6_defrt_lookup                              contiki-cc2538dk.a(uip-ds6-route.o)
                                                  contiki-cc2538dk.a(uip-nd6.o)
                                                  contiki-cc2538dk.a(uip-ds6-nbr.o)
uip_ds6_defrt_periodic                            contiki-cc2538dk.a(uip-ds6-route.o)
                                                  contiki-cc2538dk.a(uip-ds6.o)
uip_ds6_defrt_rm                                  contiki-cc2538dk.a(uip-ds6-route.o)
                                                  contiki-cc2538dk.a(rpl-dag.o)
                                                  contiki-cc2538dk.a(uip-nd6.o)
                                                  contiki-cc2538dk.a(uip-ds6-nbr.o)
uip_ds6_get_global                                contiki-cc2538dk.a(uip-ds6.o)
uip_ds6_get_least_lifetime_neighbor               contiki-cc2538dk.a(uip-ds6-nbr.o)
uip_ds6_get_link_local                            contiki-cc2538dk.a(uip-ds6.o)
                                                  contiki-cc2538dk.a(rpl-timers.o)
uip_ds6_if                                        contiki-cc2538dk.a(uip-ds6.o)
                                                  contiki-cc2538dk.a(rpl-icmp6.o)
                                                  contiki-cc2538dk.a(uip-icmp6.o)
                                                  contiki-cc2538dk.a(tcpip.o)
                                                  contiki-cc2538dk.a(uip-nd6.o)
                                                  contiki-cc2538dk.a(uip-ds6-nbr.o)
                                                  contiki-cc2538dk.a(uip6.o)
                                                  borderest.co
uip_ds6_init                                      contiki-cc2538dk.a(uip-ds6.o)
                                                  contiki-cc2538dk.a(uip6.o)
uip_ds6_is_addr_onlink                            contiki-cc2538dk.a(uip-ds6.o)
                                                  contiki-cc2538dk.a(tcpip.o)
                                                  contiki-cc2538dk.a(uip6.o)
uip_ds6_link_neighbor_callback                    contiki-cc2538dk.a(uip-ds6-nbr.o)
                                                  contiki-cc2538dk.a(sicslowpan.o)
uip_ds6_list_loop                                 contiki-cc2538dk.a(uip-ds6.o)
uip_ds6_maddr_add                                 contiki-cc2538dk.a(uip-ds6.o)
                                                  contiki-cc2538dk.a(rpl.o)
uip_ds6_maddr_lookup                              contiki-cc2538dk.a(uip-ds6.o)
                                                  contiki-cc2538dk.a(uip6.o)
uip_ds6_maddr_rm                                  contiki-cc2538dk.a(uip-ds6.o)
uip_ds6_nbr_add                                   contiki-cc2538dk.a(uip-ds6-nbr.o)
                                                  contiki-cc2538dk.a(rpl-icmp6.o)
                                                  contiki-cc2538dk.a(tcpip.o)
                                                  contiki-cc2538dk.a(uip-nd6.o)
uip_ds6_nbr_get_ipaddr                            contiki-cc2538dk.a(uip-ds6-nbr.o)
uip_ds6_nbr_get_ll                                contiki-cc2538dk.a(uip-ds6-nbr.o)
                                                  contiki-cc2538dk.a(rpl-dag.o)
                                                  contiki-cc2538dk.a(tcpip.o)
                                                  contiki-cc2538dk.a(uip-nd6.o)
uip_ds6_nbr_ipaddr_from_lladdr                    contiki-cc2538dk.a(uip-ds6-nbr.o)
                                                  contiki-cc2538dk.a(rpl-dag.o)
                                                  contiki-cc2538dk.a(uip-ds6-route.o)
uip_ds6_nbr_ll_lookup                             contiki-cc2538dk.a(uip-ds6-nbr.o)
uip_ds6_nbr_lladdr_from_ipaddr                    contiki-cc2538dk.a(uip-ds6-nbr.o)
                                                  contiki-cc2538dk.a(rpl-dag.o)
                                                  contiki-cc2538dk.a(uip-ds6-route.o)
uip_ds6_nbr_lookup                                contiki-cc2538dk.a(uip-ds6-nbr.o)
                                                  contiki-cc2538dk.a(rpl-icmp6.o)
                                                  contiki-cc2538dk.a(rpl-dag.o)
                                                  contiki-cc2538dk.a(tcpip.o)
                                                  contiki-cc2538dk.a(uip-nd6.o)
                                                  contiki-cc2538dk.a(uip-ds6-route.o)
uip_ds6_nbr_num                                   contiki-cc2538dk.a(uip-ds6-nbr.o)
                                                  contiki-cc2538dk.a(rpl-dag.o)
uip_ds6_nbr_rm                                    contiki-cc2538dk.a(uip-ds6-nbr.o)
uip_ds6_neighbor_periodic                         contiki-cc2538dk.a(uip-ds6-nbr.o)
                                                  contiki-cc2538dk.a(uip-ds6.o)
uip_ds6_neighbors_init                            contiki-cc2538dk.a(uip-ds6-nbr.o)
                                                  contiki-cc2538dk.a(uip-ds6.o)
uip_ds6_netif_addr_list_offset                    contiki-cc2538dk.a(uip-ds6.o)
uip_ds6_notification_add                          contiki-cc2538dk.a(uip-ds6-route.o)
uip_ds6_notification_rm                           contiki-cc2538dk.a(uip-ds6-route.o)
uip_ds6_periodic                                  contiki-cc2538dk.a(uip-ds6.o)
                                                  contiki-cc2538dk.a(tcpip.o)
uip_ds6_prefix_add                                contiki-cc2538dk.a(uip-ds6.o)
uip_ds6_prefix_list                               contiki-cc2538dk.a(uip-ds6.o)
uip_ds6_prefix_lookup                             contiki-cc2538dk.a(uip-ds6.o)
uip_ds6_prefix_rm                                 contiki-cc2538dk.a(uip-ds6.o)
uip_ds6_route_add                                 contiki-cc2538dk.a(uip-ds6-route.o)
                                                  contiki-cc2538dk.a(rpl.o)
uip_ds6_route_head                                contiki-cc2538dk.a(uip-ds6-route.o)
                                                  contiki-cc2538dk.a(rpl.o)
                                                  borderest.co
uip_ds6_route_init                                contiki-cc2538dk.a(uip-ds6-route.o)
                                                  contiki-cc2538dk.a(uip-ds6.o)
uip_ds6_route_lookup                              contiki-cc2538dk.a(uip-ds6-route.o)
                                                  contiki-cc2538dk.a(rpl-icmp6.o)
                                                  contiki-cc2538dk.a(rpl-ext-header.)
                                                  contiki-cc2538dk.a(tcpip.o)
uip_ds6_route_next                                contiki-cc2538dk.a(uip-ds6-route.o)
                                                  contiki-cc2538dk.a(rpl.o)
                                                  borderest.co
uip_ds6_route_nexthop                             contiki-cc2538dk.a(uip-ds6-route.o)
                                                  contiki-cc2538dk.a(rpl-icmp6.o)
                                                  contiki-cc2538dk.a(rpl.o)
                                                  contiki-cc2538dk.a(tcpip.o)
                                                  borderest.co
uip_ds6_route_num_routes                          contiki-cc2538dk.a(uip-ds6-route.o)
uip_ds6_route_rm                                  contiki-cc2538dk.a(uip-ds6-route.o)
                                                  contiki-cc2538dk.a(rpl.o)
                                                  contiki-cc2538dk.a(rpl-ext-header.)
                                                  contiki-cc2538dk.a(tcpip.o)
uip_ds6_route_rm_by_nexthop                       contiki-cc2538dk.a(uip-ds6-route.o)
uip_ds6_select_src                                contiki-cc2538dk.a(uip-ds6.o)
                                                  contiki-cc2538dk.a(uip-icmp6.o)
                                                  contiki-cc2538dk.a(uip-nd6.o)
                                                  contiki-cc2538dk.a(uip6.o)
uip_ds6_set_addr_iid                              contiki-cc2538dk.a(uip-ds6.o)
                                                  contiki-cc2538dk.a(rpl.o)
                                                  contiki-cc2538dk.a(rpl-dag.o)
                                                  contiki-cc2538dk.a(sicslowpan.o)
                                                  borderest.co
uip_ds6_timer_periodic                            contiki-cc2538dk.a(uip-ds6.o)
                                                  contiki-cc2538dk.a(tcpip.o)
uip_ds6_timer_ra                                  contiki-cc2538dk.a(uip-ds6.o)
uip_ext_bitmap                                    contiki-cc2538dk.a(uip6.o)
uip_ext_len                                       contiki-cc2538dk.a(uip6.o)
                                                  contiki-cc2538dk.a(rpl-icmp6.o)
                                                  contiki-cc2538dk.a(uip-icmp6.o)
                                                  contiki-cc2538dk.a(rpl-ext-header.)
                                                  contiki-cc2538dk.a(tcpip.o)
                                                  contiki-cc2538dk.a(uip-nd6.o)
                                                  contiki-cc2538dk.a(er-coap-observe)
                                                  contiki-cc2538dk.a(er-coap-engine.)
uip_ext_opt_offset                                contiki-cc2538dk.a(uip6.o)
uip_flags                                         contiki-cc2538dk.a(uip6.o)
                                                  contiki-cc2538dk.a(tcpip.o)
                                                  contiki-cc2538dk.a(psock.o)
                                                  contiki-cc2538dk.a(er-coap-engine.)
                                                  obj_cc2538dk/httpd-simple.o
uip_htonl                                         contiki-cc2538dk.a(uip6.o)
                                                  contiki-cc2538dk.a(uip-icmp6.o)
uip_htons                                         contiki-cc2538dk.a(uip6.o)
uip_icmp6_conns                                   contiki-cc2538dk.a(uip6.o)
                                                  contiki-cc2538dk.a(tcpip.o)
uip_icmp6_echo_reply_callback_add                 contiki-cc2538dk.a(uip-icmp6.o)
uip_icmp6_echo_reply_callback_rm                  contiki-cc2538dk.a(uip-icmp6.o)
uip_icmp6_error_output                            contiki-cc2538dk.a(uip-icmp6.o)
                                                  contiki-cc2538dk.a(uip6.o)
uip_icmp6_init                                    contiki-cc2538dk.a(uip-icmp6.o)
                                                  contiki-cc2538dk.a(uip6.o)
uip_icmp6_input                                   contiki-cc2538dk.a(uip-icmp6.o)
                                                  contiki-cc2538dk.a(uip6.o)
uip_icmp6_register_input_handler                  contiki-cc2538dk.a(uip-icmp6.o)
                                                  contiki-cc2538dk.a(rpl-icmp6.o)
                                                  contiki-cc2538dk.a(uip-nd6.o)
uip_icmp6_send                                    contiki-cc2538dk.a(uip-icmp6.o)
                                                  contiki-cc2538dk.a(rpl-icmp6.o)
uip_icmp6chksum                                   contiki-cc2538dk.a(uip6.o)
                                                  contiki-cc2538dk.a(uip-icmp6.o)
                                                  contiki-cc2538dk.a(uip-nd6.o)
uip_init                                          contiki-cc2538dk.a(uip6.o)
                                                  contiki-cc2538dk.a(tcpip.o)
uip_ipchksum                                      contiki-cc2538dk.a(uip6.o)
uip_len                                           contiki-cc2538dk.a(uip6.o)
                                                  contiki-cc2538dk.a(rpl-icmp6.o)
                                                  contiki-cc2538dk.a(uip-icmp6.o)
                                                  contiki-cc2538dk.a(rpl-ext-header.)
                                                  contiki-cc2538dk.a(tcpip.o)
                                                  contiki-cc2538dk.a(psock.o)
                                                  contiki-cc2538dk.a(sicslowpan.o)
                                                  contiki-cc2538dk.a(uip-nd6.o)
                                                  contiki-cc2538dk.a(uip-ds6-nbr.o)
                                                  contiki-cc2538dk.a(slip.o)
                                                  contiki-cc2538dk.a(er-coap-engine.)
                                                  obj_cc2538dk/slip-bridge.o
                                                  borderest.co
uip_listen                                        contiki-cc2538dk.a(uip6.o)
                                                  contiki-cc2538dk.a(tcpip.o)
uip_listenports                                   contiki-cc2538dk.a(uip6.o)
uip_lladdr                                        contiki-cc2538dk.a(uip6.o)
                                                  contiki-cc2538dk.a(rpl-dag.o)
                                                  contiki-cc2538dk.a(sicslowpan.o)
                                                  contiki-cc2538dk.a(uip-nd6.o)
                                                  contiki-cc2538dk.a(uip-ds6.o)
                                                  contiki-cc2538dk.a(contiki-main.o)
                                                  obj_cc2538dk/slip-bridge.o
                                                  borderest.co
uip_nd6_init                                      contiki-cc2538dk.a(uip-nd6.o)
                                                  contiki-cc2538dk.a(uip6.o)
uip_nd6_ns_output                                 contiki-cc2538dk.a(uip-nd6.o)
                                                  contiki-cc2538dk.a(tcpip.o)
                                                  contiki-cc2538dk.a(uip-ds6-nbr.o)
uip_next_hdr                                      contiki-cc2538dk.a(uip6.o)
uip_process                                       contiki-cc2538dk.a(uip6.o)
                                                  contiki-cc2538dk.a(uip-udp-packet.)
                                                  contiki-cc2538dk.a(tcpip.o)
uip_sappdata                                      contiki-cc2538dk.a(uip6.o)
uip_send                                          contiki-cc2538dk.a(uip6.o)
                                                  contiki-cc2538dk.a(psock.o)
uip_slen                                          contiki-cc2538dk.a(uip6.o)
                                                  contiki-cc2538dk.a(uip-udp-packet.)
uip_tcpchksum                                     contiki-cc2538dk.a(uip6.o)
uip_udp_conn                                      contiki-cc2538dk.a(uip6.o)
                                                  contiki-cc2538dk.a(uip-udp-packet.)
                                                  contiki-cc2538dk.a(tcpip.o)
uip_udp_conns                                     contiki-cc2538dk.a(uip6.o)
                                                  contiki-cc2538dk.a(tcpip.o)
uip_udp_new                                       contiki-cc2538dk.a(uip6.o)
                                                  contiki-cc2538dk.a(tcpip.o)
uip_udp_packet_send                               contiki-cc2538dk.a(uip-udp-packet.)
                                                  contiki-cc2538dk.a(er-coap.o)
uip_udp_packet_sendto                             contiki-cc2538dk.a(uip-udp-packet.)
uip_udpchksum                                     contiki-cc2538dk.a(uip6.o)
uip_unlisten                                      contiki-cc2538dk.a(uip6.o)
                                                  contiki-cc2538dk.a(tcpip.o)
unc_ctxconf                                       contiki-cc2538dk.a(sicslowpan.o)
unc_llconf                                        contiki-cc2538dk.a(sicslowpan.o)
unc_mxconf                                        contiki-cc2538dk.a(sicslowpan.o)
usb_isr                                           obj_cc2538dk/startup-gcc.o
vdd3_sensor                                       contiki-cc2538dk.a(vdd3-sensor.o)
                                                  contiki-cc2538dk.a(smartrf-sensors)
vectors                                           obj_cc2538dk/startup-gcc.o
vsnprintf                                         contiki-cc2538dk.a(dbg-snprintf.o)
watchdog_init                                     contiki-cc2538dk.a(watchdog.o)
                                                  contiki-cc2538dk.a(contiki-main.o)
watchdog_periodic                                 contiki-cc2538dk.a(watchdog.o)
                                                  contiki-cc2538dk.a(contikimac.o)
                                                  contiki-cc2538dk.a(sicslowpan.o)
                                                  contiki-cc2538dk.a(contiki-main.o)
watchdog_reboot                                   contiki-cc2538dk.a(watchdog.o)
watchdog_start                                    contiki-cc2538dk.a(watchdog.o)
                                                  contiki-cc2538dk.a(contiki-main.o)
webserver_nogui_process                           borderest.co
well_known_core_get_handler                       contiki-cc2538dk.a(er-coap-res-wel)
